ARM GAS  C:\Users\Keyarash\AppData\Local\Temp\ccWKO81o.s 			page 1


   1              		.syntax unified
   2              		.cpu cortex-m0
   3              		.fpu softvfp
   4              		.eabi_attribute 20, 1
   5              		.eabi_attribute 21, 1
   6              		.eabi_attribute 23, 3
   7              		.eabi_attribute 24, 1
   8              		.eabi_attribute 25, 1
   9              		.eabi_attribute 26, 1
  10              		.eabi_attribute 30, 1
  11              		.eabi_attribute 34, 0
  12              		.eabi_attribute 18, 4
  13              		.thumb
  14              		.syntax unified
  15              		.file	"ADC_SAR_SEQ.c"
  16              		.text
  17              	.Ltext0:
  18              		.cfi_sections	.debug_frame
  19              		.global	__aeabi_idiv
  20              		.section	.text.ADC_SAR_SEQ_Init,"ax",%progbits
  21              		.align	2
  22              		.global	ADC_SAR_SEQ_Init
  23              		.code	16
  24              		.thumb_func
  25              		.type	ADC_SAR_SEQ_Init, %function
  26              	ADC_SAR_SEQ_Init:
  27              	.LFB1:
  28              		.file 1 "Generated_Source\\PSoC4\\ADC_SAR_SEQ.c"
   1:Generated_Source\PSoC4/ADC_SAR_SEQ.c **** /*******************************************************************************
   2:Generated_Source\PSoC4/ADC_SAR_SEQ.c **** * File Name: ADC_SAR_SEQ.c
   3:Generated_Source\PSoC4/ADC_SAR_SEQ.c **** * Version 2.50
   4:Generated_Source\PSoC4/ADC_SAR_SEQ.c **** *
   5:Generated_Source\PSoC4/ADC_SAR_SEQ.c **** * Description:
   6:Generated_Source\PSoC4/ADC_SAR_SEQ.c **** *  This file provides the source code to the API for the Sequencing Successive
   7:Generated_Source\PSoC4/ADC_SAR_SEQ.c **** *  Approximation ADC Component Component.
   8:Generated_Source\PSoC4/ADC_SAR_SEQ.c **** *
   9:Generated_Source\PSoC4/ADC_SAR_SEQ.c **** * Note:
  10:Generated_Source\PSoC4/ADC_SAR_SEQ.c **** *
  11:Generated_Source\PSoC4/ADC_SAR_SEQ.c **** ********************************************************************************
  12:Generated_Source\PSoC4/ADC_SAR_SEQ.c **** * Copyright 2008-2017, Cypress Semiconductor Corporation.  All rights reserved.
  13:Generated_Source\PSoC4/ADC_SAR_SEQ.c **** * You may use this file only in accordance with the license, terms, conditions,
  14:Generated_Source\PSoC4/ADC_SAR_SEQ.c **** * disclaimers, and limitations in the end user license agreement accompanying
  15:Generated_Source\PSoC4/ADC_SAR_SEQ.c **** * the software package with which this file was provided.
  16:Generated_Source\PSoC4/ADC_SAR_SEQ.c **** *******************************************************************************/
  17:Generated_Source\PSoC4/ADC_SAR_SEQ.c **** 
  18:Generated_Source\PSoC4/ADC_SAR_SEQ.c **** #include "ADC_SAR_SEQ.h"
  19:Generated_Source\PSoC4/ADC_SAR_SEQ.c **** 
  20:Generated_Source\PSoC4/ADC_SAR_SEQ.c **** 
  21:Generated_Source\PSoC4/ADC_SAR_SEQ.c **** /***************************************
  22:Generated_Source\PSoC4/ADC_SAR_SEQ.c **** * Global data allocation
  23:Generated_Source\PSoC4/ADC_SAR_SEQ.c **** ***************************************/
  24:Generated_Source\PSoC4/ADC_SAR_SEQ.c **** uint8 ADC_SAR_SEQ_initVar = 0u;
  25:Generated_Source\PSoC4/ADC_SAR_SEQ.c **** volatile int16 ADC_SAR_SEQ_offset[ADC_SAR_SEQ_TOTAL_CHANNELS_NUM];
  26:Generated_Source\PSoC4/ADC_SAR_SEQ.c **** volatile int32 ADC_SAR_SEQ_countsPer10Volt[ADC_SAR_SEQ_TOTAL_CHANNELS_NUM];   /* Gain compensation 
  27:Generated_Source\PSoC4/ADC_SAR_SEQ.c **** 
  28:Generated_Source\PSoC4/ADC_SAR_SEQ.c **** 
  29:Generated_Source\PSoC4/ADC_SAR_SEQ.c **** /***************************************
ARM GAS  C:\Users\Keyarash\AppData\Local\Temp\ccWKO81o.s 			page 2


  30:Generated_Source\PSoC4/ADC_SAR_SEQ.c **** * Local data allocation
  31:Generated_Source\PSoC4/ADC_SAR_SEQ.c **** ***************************************/
  32:Generated_Source\PSoC4/ADC_SAR_SEQ.c **** /* Channels configuration generated by customiser */
  33:Generated_Source\PSoC4/ADC_SAR_SEQ.c **** static const uint32 CYCODE ADC_SAR_SEQ_channelsConfig[] = { 0x00000402u, 0x00000402u };
  34:Generated_Source\PSoC4/ADC_SAR_SEQ.c **** 
  35:Generated_Source\PSoC4/ADC_SAR_SEQ.c **** 
  36:Generated_Source\PSoC4/ADC_SAR_SEQ.c **** /*******************************************************************************
  37:Generated_Source\PSoC4/ADC_SAR_SEQ.c **** * Function Name: ADC_SAR_SEQ_Start
  38:Generated_Source\PSoC4/ADC_SAR_SEQ.c **** ********************************************************************************
  39:Generated_Source\PSoC4/ADC_SAR_SEQ.c **** *
  40:Generated_Source\PSoC4/ADC_SAR_SEQ.c **** * Summary:
  41:Generated_Source\PSoC4/ADC_SAR_SEQ.c **** *  Performs all required initialization for this component
  42:Generated_Source\PSoC4/ADC_SAR_SEQ.c **** *  and enables the power. The power will be set to the appropriate
  43:Generated_Source\PSoC4/ADC_SAR_SEQ.c **** *  power based on the clock frequency.
  44:Generated_Source\PSoC4/ADC_SAR_SEQ.c **** *
  45:Generated_Source\PSoC4/ADC_SAR_SEQ.c **** * Parameters:
  46:Generated_Source\PSoC4/ADC_SAR_SEQ.c **** *  None.
  47:Generated_Source\PSoC4/ADC_SAR_SEQ.c **** *
  48:Generated_Source\PSoC4/ADC_SAR_SEQ.c **** * Return:
  49:Generated_Source\PSoC4/ADC_SAR_SEQ.c **** *  None.
  50:Generated_Source\PSoC4/ADC_SAR_SEQ.c **** *
  51:Generated_Source\PSoC4/ADC_SAR_SEQ.c **** * Global variables:
  52:Generated_Source\PSoC4/ADC_SAR_SEQ.c **** *  The ADC_SAR_SEQ_initVar variable is used to indicate when/if initial
  53:Generated_Source\PSoC4/ADC_SAR_SEQ.c **** *  configuration of this component has happened. The variable is initialized to
  54:Generated_Source\PSoC4/ADC_SAR_SEQ.c **** *  zero and set to 1 the first time ADC_Start() is called. This allows for
  55:Generated_Source\PSoC4/ADC_SAR_SEQ.c **** *  component Re-Start without re-initialization in all subsequent calls to the
  56:Generated_Source\PSoC4/ADC_SAR_SEQ.c **** *  ADC_SAR_SEQ_Start() routine.
  57:Generated_Source\PSoC4/ADC_SAR_SEQ.c **** *  If re-initialization of the component is required the variable should be set
  58:Generated_Source\PSoC4/ADC_SAR_SEQ.c **** *  to zero before call of ADC_SAR_SEQ_Start() routine, or the user may call
  59:Generated_Source\PSoC4/ADC_SAR_SEQ.c **** *  ADC_SAR_SEQ_Init() and ADC_SAR_SEQ_Enable() as done in the
  60:Generated_Source\PSoC4/ADC_SAR_SEQ.c **** *  ADC_SAR_SEQ_Start() routine.
  61:Generated_Source\PSoC4/ADC_SAR_SEQ.c **** *
  62:Generated_Source\PSoC4/ADC_SAR_SEQ.c **** *******************************************************************************/
  63:Generated_Source\PSoC4/ADC_SAR_SEQ.c **** void ADC_SAR_SEQ_Start(void)
  64:Generated_Source\PSoC4/ADC_SAR_SEQ.c **** {
  65:Generated_Source\PSoC4/ADC_SAR_SEQ.c ****     /* If not Initialized then initialize all required hardware and software */
  66:Generated_Source\PSoC4/ADC_SAR_SEQ.c ****     if(ADC_SAR_SEQ_initVar == 0u)
  67:Generated_Source\PSoC4/ADC_SAR_SEQ.c ****     {
  68:Generated_Source\PSoC4/ADC_SAR_SEQ.c ****         ADC_SAR_SEQ_Init();
  69:Generated_Source\PSoC4/ADC_SAR_SEQ.c ****         ADC_SAR_SEQ_initVar = 1u;
  70:Generated_Source\PSoC4/ADC_SAR_SEQ.c ****     }
  71:Generated_Source\PSoC4/ADC_SAR_SEQ.c ****     ADC_SAR_SEQ_Enable();
  72:Generated_Source\PSoC4/ADC_SAR_SEQ.c **** }
  73:Generated_Source\PSoC4/ADC_SAR_SEQ.c **** 
  74:Generated_Source\PSoC4/ADC_SAR_SEQ.c **** 
  75:Generated_Source\PSoC4/ADC_SAR_SEQ.c **** /*******************************************************************************
  76:Generated_Source\PSoC4/ADC_SAR_SEQ.c **** * Function Name: ADC_SAR_SEQ_Init
  77:Generated_Source\PSoC4/ADC_SAR_SEQ.c **** ********************************************************************************
  78:Generated_Source\PSoC4/ADC_SAR_SEQ.c **** *
  79:Generated_Source\PSoC4/ADC_SAR_SEQ.c **** * Summary:
  80:Generated_Source\PSoC4/ADC_SAR_SEQ.c **** *  Initialize component's parameters to the parameters set by user in the
  81:Generated_Source\PSoC4/ADC_SAR_SEQ.c **** *  customizer of the component placed onto schematic. Usually called in
  82:Generated_Source\PSoC4/ADC_SAR_SEQ.c **** *  ADC_SAR_SEQ_Start().
  83:Generated_Source\PSoC4/ADC_SAR_SEQ.c **** *
  84:Generated_Source\PSoC4/ADC_SAR_SEQ.c **** * Parameters:
  85:Generated_Source\PSoC4/ADC_SAR_SEQ.c **** *  None.
  86:Generated_Source\PSoC4/ADC_SAR_SEQ.c **** *
ARM GAS  C:\Users\Keyarash\AppData\Local\Temp\ccWKO81o.s 			page 3


  87:Generated_Source\PSoC4/ADC_SAR_SEQ.c **** * Return:
  88:Generated_Source\PSoC4/ADC_SAR_SEQ.c **** *  None.
  89:Generated_Source\PSoC4/ADC_SAR_SEQ.c **** *
  90:Generated_Source\PSoC4/ADC_SAR_SEQ.c **** * Global variables:
  91:Generated_Source\PSoC4/ADC_SAR_SEQ.c **** *  The ADC_SAR_SEQ_offset variable is initialized.
  92:Generated_Source\PSoC4/ADC_SAR_SEQ.c **** *
  93:Generated_Source\PSoC4/ADC_SAR_SEQ.c **** *******************************************************************************/
  94:Generated_Source\PSoC4/ADC_SAR_SEQ.c **** void ADC_SAR_SEQ_Init(void)
  95:Generated_Source\PSoC4/ADC_SAR_SEQ.c **** {
  29              		.loc 1 95 0
  30              		.cfi_startproc
  31              		@ args = 0, pretend = 0, frame = 0
  32              		@ frame_needed = 0, uses_anonymous_args = 0
  33 0000 10B5     		push	{r4, lr}
  34              		.cfi_def_cfa_offset 8
  35              		.cfi_offset 4, -8
  36              		.cfi_offset 14, -4
  96:Generated_Source\PSoC4/ADC_SAR_SEQ.c ****     uint32 chNum;
  97:Generated_Source\PSoC4/ADC_SAR_SEQ.c ****     uint32 tmpRegVal;
  98:Generated_Source\PSoC4/ADC_SAR_SEQ.c ****     int32 counts;
  99:Generated_Source\PSoC4/ADC_SAR_SEQ.c **** 
 100:Generated_Source\PSoC4/ADC_SAR_SEQ.c ****     #if(ADC_SAR_SEQ_TOTAL_CHANNELS_NUM > 1u)
 101:Generated_Source\PSoC4/ADC_SAR_SEQ.c ****         static const uint8 CYCODE ADC_SAR_SEQ_InputsPlacement[] =
 102:Generated_Source\PSoC4/ADC_SAR_SEQ.c ****         {
 103:Generated_Source\PSoC4/ADC_SAR_SEQ.c ****             (uint8)(ADC_SAR_SEQ_cy_psoc4_sarmux_8__CH_0_PORT << 4u) |
 104:Generated_Source\PSoC4/ADC_SAR_SEQ.c ****             (uint8)ADC_SAR_SEQ_cy_psoc4_sarmux_8__CH_0_PIN
 105:Generated_Source\PSoC4/ADC_SAR_SEQ.c ****             ,(uint8)(ADC_SAR_SEQ_cy_psoc4_sarmux_8__CH_1_PORT << 4u) |
 106:Generated_Source\PSoC4/ADC_SAR_SEQ.c ****              (uint8)ADC_SAR_SEQ_cy_psoc4_sarmux_8__CH_1_PIN
 107:Generated_Source\PSoC4/ADC_SAR_SEQ.c ****             #if(ADC_SAR_SEQ_TOTAL_CHANNELS_NUM > 2u)
 108:Generated_Source\PSoC4/ADC_SAR_SEQ.c ****                 ,(uint8)(ADC_SAR_SEQ_cy_psoc4_sarmux_8__CH_2_PORT << 4u) |
 109:Generated_Source\PSoC4/ADC_SAR_SEQ.c ****                  (uint8)ADC_SAR_SEQ_cy_psoc4_sarmux_8__CH_2_PIN
 110:Generated_Source\PSoC4/ADC_SAR_SEQ.c ****             #endif /* End ADC_SAR_SEQ_TOTAL_CHANNELS_NUM > 2u */
 111:Generated_Source\PSoC4/ADC_SAR_SEQ.c ****             #if(ADC_SAR_SEQ_TOTAL_CHANNELS_NUM > 3u)
 112:Generated_Source\PSoC4/ADC_SAR_SEQ.c ****                 ,(uint8)(ADC_SAR_SEQ_cy_psoc4_sarmux_8__CH_3_PORT << 4u) |
 113:Generated_Source\PSoC4/ADC_SAR_SEQ.c ****                  (uint8)ADC_SAR_SEQ_cy_psoc4_sarmux_8__CH_3_PIN
 114:Generated_Source\PSoC4/ADC_SAR_SEQ.c ****             #endif /* End ADC_SAR_SEQ_TOTAL_CHANNELS_NUM > 3u */
 115:Generated_Source\PSoC4/ADC_SAR_SEQ.c ****             #if(ADC_SAR_SEQ_TOTAL_CHANNELS_NUM > 4u)
 116:Generated_Source\PSoC4/ADC_SAR_SEQ.c ****                 ,(uint8)(ADC_SAR_SEQ_cy_psoc4_sarmux_8__CH_4_PORT << 4u) |
 117:Generated_Source\PSoC4/ADC_SAR_SEQ.c ****                  (uint8)ADC_SAR_SEQ_cy_psoc4_sarmux_8__CH_4_PIN
 118:Generated_Source\PSoC4/ADC_SAR_SEQ.c ****             #endif /* End ADC_SAR_SEQ_TOTAL_CHANNELS_NUM > 4u */
 119:Generated_Source\PSoC4/ADC_SAR_SEQ.c ****             #if(ADC_SAR_SEQ_TOTAL_CHANNELS_NUM > 5u)
 120:Generated_Source\PSoC4/ADC_SAR_SEQ.c ****                 ,(uint8)(ADC_SAR_SEQ_cy_psoc4_sarmux_8__CH_5_PORT << 4u) |
 121:Generated_Source\PSoC4/ADC_SAR_SEQ.c ****                  (uint8)ADC_SAR_SEQ_cy_psoc4_sarmux_8__CH_5_PIN
 122:Generated_Source\PSoC4/ADC_SAR_SEQ.c ****             #endif /* End ADC_SAR_SEQ_TOTAL_CHANNELS_NUM > 5u */
 123:Generated_Source\PSoC4/ADC_SAR_SEQ.c ****             #if(ADC_SAR_SEQ_TOTAL_CHANNELS_NUM > 6u)
 124:Generated_Source\PSoC4/ADC_SAR_SEQ.c ****                 ,(uint8)(ADC_SAR_SEQ_cy_psoc4_sarmux_8__CH_6_PORT << 4u) |
 125:Generated_Source\PSoC4/ADC_SAR_SEQ.c ****                  (uint8)ADC_SAR_SEQ_cy_psoc4_sarmux_8__CH_6_PIN
 126:Generated_Source\PSoC4/ADC_SAR_SEQ.c ****             #endif /* End ADC_SAR_SEQ_TOTAL_CHANNELS_NUM > 6u */
 127:Generated_Source\PSoC4/ADC_SAR_SEQ.c ****             #if(ADC_SAR_SEQ_TOTAL_CHANNELS_NUM > 7u)
 128:Generated_Source\PSoC4/ADC_SAR_SEQ.c ****                 ,(uint8)(ADC_SAR_SEQ_cy_psoc4_sarmux_8__CH_7_PORT << 4u) |
 129:Generated_Source\PSoC4/ADC_SAR_SEQ.c ****                  (uint8)ADC_SAR_SEQ_cy_psoc4_sarmux_8__CH_7_PIN
 130:Generated_Source\PSoC4/ADC_SAR_SEQ.c ****             #endif /* End ADC_SAR_SEQ_TOTAL_CHANNELS_NUM > 7u */
 131:Generated_Source\PSoC4/ADC_SAR_SEQ.c ****             #if(ADC_SAR_SEQ_TOTAL_CHANNELS_NUM > 8u)
 132:Generated_Source\PSoC4/ADC_SAR_SEQ.c ****                 ,(uint8)(ADC_SAR_SEQ_cy_psoc4_sarmux_8__CH_8_PORT << 4u) |
 133:Generated_Source\PSoC4/ADC_SAR_SEQ.c ****                  (uint8)ADC_SAR_SEQ_cy_psoc4_sarmux_8__CH_8_PIN
 134:Generated_Source\PSoC4/ADC_SAR_SEQ.c ****             #endif /* End ADC_SAR_SEQ_TOTAL_CHANNELS_NUM > 8u */
 135:Generated_Source\PSoC4/ADC_SAR_SEQ.c ****             #if(ADC_SAR_SEQ_TOTAL_CHANNELS_NUM > 9u)
ARM GAS  C:\Users\Keyarash\AppData\Local\Temp\ccWKO81o.s 			page 4


 136:Generated_Source\PSoC4/ADC_SAR_SEQ.c ****                 ,(uint8)(ADC_SAR_SEQ_cy_psoc4_sarmux_8__CH_9_PORT << 4u) |
 137:Generated_Source\PSoC4/ADC_SAR_SEQ.c ****                  (uint8)ADC_SAR_SEQ_cy_psoc4_sarmux_8__CH_9_PIN
 138:Generated_Source\PSoC4/ADC_SAR_SEQ.c ****             #endif /* End ADC_SAR_SEQ_TOTAL_CHANNELS_NUM > 9u */
 139:Generated_Source\PSoC4/ADC_SAR_SEQ.c ****             #if(ADC_SAR_SEQ_TOTAL_CHANNELS_NUM > 10u)
 140:Generated_Source\PSoC4/ADC_SAR_SEQ.c ****                 ,(uint8)(ADC_SAR_SEQ_cy_psoc4_sarmux_8__CH_10_PORT << 4u) |
 141:Generated_Source\PSoC4/ADC_SAR_SEQ.c ****                  (uint8)ADC_SAR_SEQ_cy_psoc4_sarmux_8__CH_10_PIN
 142:Generated_Source\PSoC4/ADC_SAR_SEQ.c ****             #endif /* End ADC_SAR_SEQ_TOTAL_CHANNELS_NUM > 10u */
 143:Generated_Source\PSoC4/ADC_SAR_SEQ.c ****             #if(ADC_SAR_SEQ_TOTAL_CHANNELS_NUM > 11u)
 144:Generated_Source\PSoC4/ADC_SAR_SEQ.c ****                 ,(uint8)(ADC_SAR_SEQ_cy_psoc4_sarmux_8__CH_11_PORT << 4u) |
 145:Generated_Source\PSoC4/ADC_SAR_SEQ.c ****                  (uint8)ADC_SAR_SEQ_cy_psoc4_sarmux_8__CH_11_PIN
 146:Generated_Source\PSoC4/ADC_SAR_SEQ.c ****             #endif /* End ADC_SAR_SEQ_TOTAL_CHANNELS_NUM > 11u */
 147:Generated_Source\PSoC4/ADC_SAR_SEQ.c ****             #if(ADC_SAR_SEQ_TOTAL_CHANNELS_NUM > 12u)
 148:Generated_Source\PSoC4/ADC_SAR_SEQ.c ****                 ,(uint8)(ADC_SAR_SEQ_cy_psoc4_sarmux_8__CH_12_PORT << 4u) |
 149:Generated_Source\PSoC4/ADC_SAR_SEQ.c ****                  (uint8)ADC_SAR_SEQ_cy_psoc4_sarmux_8__CH_12_PIN
 150:Generated_Source\PSoC4/ADC_SAR_SEQ.c ****             #endif /* End ADC_SAR_SEQ_TOTAL_CHANNELS_NUM > 12u */
 151:Generated_Source\PSoC4/ADC_SAR_SEQ.c ****             #if(ADC_SAR_SEQ_TOTAL_CHANNELS_NUM > 13u)
 152:Generated_Source\PSoC4/ADC_SAR_SEQ.c ****                 ,(uint8)(ADC_SAR_SEQ_cy_psoc4_sarmux_8__CH_13_PORT << 4u) |
 153:Generated_Source\PSoC4/ADC_SAR_SEQ.c ****                  (uint8)ADC_SAR_SEQ_cy_psoc4_sarmux_8__CH_13_PIN
 154:Generated_Source\PSoC4/ADC_SAR_SEQ.c ****             #endif /* End ADC_SAR_SEQ_TOTAL_CHANNELS_NUM > 13u */
 155:Generated_Source\PSoC4/ADC_SAR_SEQ.c ****             #if(ADC_SAR_SEQ_TOTAL_CHANNELS_NUM > 14u)
 156:Generated_Source\PSoC4/ADC_SAR_SEQ.c ****                 ,(uint8)(ADC_SAR_SEQ_cy_psoc4_sarmux_8__CH_14_PORT << 4u) |
 157:Generated_Source\PSoC4/ADC_SAR_SEQ.c ****                  (uint8)ADC_SAR_SEQ_cy_psoc4_sarmux_8__CH_14_PIN
 158:Generated_Source\PSoC4/ADC_SAR_SEQ.c ****             #endif /* End ADC_SAR_SEQ_TOTAL_CHANNELS_NUM > 14u */
 159:Generated_Source\PSoC4/ADC_SAR_SEQ.c ****             #if(ADC_SAR_SEQ_TOTAL_CHANNELS_NUM > 15u)
 160:Generated_Source\PSoC4/ADC_SAR_SEQ.c ****                 ,(uint8)(ADC_SAR_SEQ_cy_psoc4_sarmux_8__CH_15_PORT << 4u) |
 161:Generated_Source\PSoC4/ADC_SAR_SEQ.c ****                  (uint8)ADC_SAR_SEQ_cy_psoc4_sarmux_8__CH_15_PIN
 162:Generated_Source\PSoC4/ADC_SAR_SEQ.c ****             #endif /* End ADC_SAR_SEQ_TOTAL_CHANNELS_NUM > 15u */
 163:Generated_Source\PSoC4/ADC_SAR_SEQ.c ****             #if(ADC_SAR_SEQ_TOTAL_CHANNELS_NUM > 16u)
 164:Generated_Source\PSoC4/ADC_SAR_SEQ.c ****                 ,(uint8)(ADC_SAR_SEQ_cy_psoc4_sarmux_8__CH_16_PORT << 4u) |
 165:Generated_Source\PSoC4/ADC_SAR_SEQ.c ****                  (uint8)ADC_SAR_SEQ_cy_psoc4_sarmux_8__CH_16_PIN
 166:Generated_Source\PSoC4/ADC_SAR_SEQ.c ****             #endif /* End ADC_SAR_SEQ_TOTAL_CHANNELS_NUM > 16u */
 167:Generated_Source\PSoC4/ADC_SAR_SEQ.c ****         };
 168:Generated_Source\PSoC4/ADC_SAR_SEQ.c ****     #endif /* End ADC_SAR_SEQ_TOTAL_CHANNELS_NUM > 1u */
 169:Generated_Source\PSoC4/ADC_SAR_SEQ.c **** 
 170:Generated_Source\PSoC4/ADC_SAR_SEQ.c ****     #if(ADC_SAR_SEQ_IRQ_REMOVE == 0u)
 171:Generated_Source\PSoC4/ADC_SAR_SEQ.c ****         /* Start and set interrupt vector */
 172:Generated_Source\PSoC4/ADC_SAR_SEQ.c ****         CyIntSetPriority(ADC_SAR_SEQ_INTC_NUMBER, ADC_SAR_SEQ_INTC_PRIOR_NUMBER);
  37              		.loc 1 172 0
  38 0002 0321     		movs	r1, #3
  39 0004 0E20     		movs	r0, #14
  40 0006 FFF7FEFF 		bl	CyIntSetPriority
  41              	.LVL0:
 173:Generated_Source\PSoC4/ADC_SAR_SEQ.c ****         (void)CyIntSetVector(ADC_SAR_SEQ_INTC_NUMBER, &ADC_SAR_SEQ_ISR);
  42              		.loc 1 173 0
  43 000a 4349     		ldr	r1, .L12
  44 000c 0E20     		movs	r0, #14
  45 000e FFF7FEFF 		bl	CyIntSetVector
  46              	.LVL1:
 174:Generated_Source\PSoC4/ADC_SAR_SEQ.c ****     #endif   /* End ADC_SAR_SEQ_IRQ_REMOVE */
 175:Generated_Source\PSoC4/ADC_SAR_SEQ.c **** 
 176:Generated_Source\PSoC4/ADC_SAR_SEQ.c ****     /* Init SAR and MUX registers */
 177:Generated_Source\PSoC4/ADC_SAR_SEQ.c ****     ADC_SAR_SEQ_SAR_CHAN_EN_REG = ADC_SAR_SEQ_DEFAULT_EN_CHANNELS;
  47              		.loc 1 177 0
  48 0012 0322     		movs	r2, #3
  49 0014 414B     		ldr	r3, .L12+4
  50 0016 1A60     		str	r2, [r3]
 178:Generated_Source\PSoC4/ADC_SAR_SEQ.c ****     ADC_SAR_SEQ_SAR_CTRL_REG |= ADC_SAR_SEQ_DEFAULT_CTRL_REG_CFG | 
ARM GAS  C:\Users\Keyarash\AppData\Local\Temp\ccWKO81o.s 			page 5


 179:Generated_Source\PSoC4/ADC_SAR_SEQ.c ****         /* Enable the SAR internal pump when global pump is enabled */
 180:Generated_Source\PSoC4/ADC_SAR_SEQ.c ****         (((ADC_SAR_SEQ_PUMP_CTRL_REG & ADC_SAR_SEQ_PUMP_CTRL_ENABLED) != 0u) ? 
  51              		.loc 1 180 0
  52 0018 414B     		ldr	r3, .L12+8
  53 001a 1B68     		ldr	r3, [r3]
 178:Generated_Source\PSoC4/ADC_SAR_SEQ.c ****     ADC_SAR_SEQ_SAR_CTRL_REG |= ADC_SAR_SEQ_DEFAULT_CTRL_REG_CFG | 
  54              		.loc 1 178 0
  55 001c 002B     		cmp	r3, #0
  56 001e 01DA     		bge	.L10
  57 0020 4049     		ldr	r1, .L12+12
  58 0022 00E0     		b	.L2
  59              	.L10:
  60 0024 4049     		ldr	r1, .L12+16
  61              	.L2:
 178:Generated_Source\PSoC4/ADC_SAR_SEQ.c ****     ADC_SAR_SEQ_SAR_CTRL_REG |= ADC_SAR_SEQ_DEFAULT_CTRL_REG_CFG | 
  62              		.loc 1 178 0 is_stmt 0 discriminator 4
  63 0026 414A     		ldr	r2, .L12+20
  64 0028 1368     		ldr	r3, [r2]
  65 002a 0B43     		orrs	r3, r1
  66 002c 1360     		str	r3, [r2]
 181:Generated_Source\PSoC4/ADC_SAR_SEQ.c ****         ADC_SAR_SEQ_BOOSTPUMP_EN : 0u);
 182:Generated_Source\PSoC4/ADC_SAR_SEQ.c ****     ADC_SAR_SEQ_SAR_SAMPLE_CTRL_REG = ADC_SAR_SEQ_DEFAULT_SAMPLE_CTRL_REG_CFG;
  67              		.loc 1 182 0 is_stmt 1 discriminator 4
  68 002e 404A     		ldr	r2, .L12+24
  69 0030 404B     		ldr	r3, .L12+28
  70 0032 1A60     		str	r2, [r3]
 183:Generated_Source\PSoC4/ADC_SAR_SEQ.c ****     ADC_SAR_SEQ_SAR_RANGE_THRES_REG = ADC_SAR_SEQ_DEFAULT_RANGE_THRES_REG_CFG;
  71              		.loc 1 183 0 discriminator 4
  72 0034 404A     		ldr	r2, .L12+32
  73 0036 414B     		ldr	r3, .L12+36
  74 0038 1A60     		str	r2, [r3]
 184:Generated_Source\PSoC4/ADC_SAR_SEQ.c ****     ADC_SAR_SEQ_SAR_RANGE_COND_REG  = ADC_SAR_SEQ_COMPARE_MODE;
  75              		.loc 1 184 0 discriminator 4
  76 003a 8022     		movs	r2, #128
  77 003c D205     		lsls	r2, r2, #23
  78 003e 404B     		ldr	r3, .L12+40
  79 0040 1A60     		str	r2, [r3]
 185:Generated_Source\PSoC4/ADC_SAR_SEQ.c ****     ADC_SAR_SEQ_SAR_SAMPLE_TIME01_REG = ADC_SAR_SEQ_DEFAULT_SAMPLE_TIME01_REG_CFG;
  80              		.loc 1 185 0 discriminator 4
  81 0042 404B     		ldr	r3, .L12+44
  82 0044 404A     		ldr	r2, .L12+48
  83 0046 1360     		str	r3, [r2]
 186:Generated_Source\PSoC4/ADC_SAR_SEQ.c ****     ADC_SAR_SEQ_SAR_SAMPLE_TIME23_REG = ADC_SAR_SEQ_DEFAULT_SAMPLE_TIME23_REG_CFG;
  84              		.loc 1 186 0 discriminator 4
  85 0048 404A     		ldr	r2, .L12+52
  86 004a 1360     		str	r3, [r2]
 187:Generated_Source\PSoC4/ADC_SAR_SEQ.c ****     
 188:Generated_Source\PSoC4/ADC_SAR_SEQ.c ****     /* Connect Vm to VSSA when even one channel is single-ended or multiple channels configured */
 189:Generated_Source\PSoC4/ADC_SAR_SEQ.c ****     #if(ADC_SAR_SEQ_DEFAULT_MUX_SWITCH0 != 0u)
 190:Generated_Source\PSoC4/ADC_SAR_SEQ.c ****         ADC_SAR_SEQ_MUX_SWITCH0_REG |= ADC_SAR_SEQ_DEFAULT_MUX_SWITCH0;
  87              		.loc 1 190 0 discriminator 4
  88 004c 404B     		ldr	r3, .L12+56
  89 004e 1A68     		ldr	r2, [r3]
  90 0050 8021     		movs	r1, #128
  91 0052 4902     		lsls	r1, r1, #9
  92 0054 0A43     		orrs	r2, r1
  93 0056 1A60     		str	r2, [r3]
ARM GAS  C:\Users\Keyarash\AppData\Local\Temp\ccWKO81o.s 			page 6


 191:Generated_Source\PSoC4/ADC_SAR_SEQ.c ****         /* Set MUX_HW_CTRL_VSSA in MUX_SWITCH_HW_CTRL when multiple channels enabled */
 192:Generated_Source\PSoC4/ADC_SAR_SEQ.c ****         #if(ADC_SAR_SEQ_TOTAL_CHANNELS_NUM > 1u)
 193:Generated_Source\PSoC4/ADC_SAR_SEQ.c ****             ADC_SAR_SEQ_MUX_SWITCH_HW_CTRL_REG |= ADC_SAR_SEQ_DEFAULT_MUX_SWITCH0;
  94              		.loc 1 193 0 discriminator 4
  95 0058 3E4A     		ldr	r2, .L12+60
  96 005a 1368     		ldr	r3, [r2]
  97 005c 0B43     		orrs	r3, r1
  98 005e 1360     		str	r3, [r2]
 194:Generated_Source\PSoC4/ADC_SAR_SEQ.c ****         #endif /* ADC_SAR_SEQ_TOTAL_CHANNELS_NUM > 1u */
 195:Generated_Source\PSoC4/ADC_SAR_SEQ.c ****     #endif /*ADC_SAR_SEQ_CHANNELS_MODE !=0 */
 196:Generated_Source\PSoC4/ADC_SAR_SEQ.c **** 
 197:Generated_Source\PSoC4/ADC_SAR_SEQ.c ****     ADC_SAR_SEQ_SAR_SATURATE_INTR_MASK_REG = 0u;
  99              		.loc 1 197 0 discriminator 4
 100 0060 0023     		movs	r3, #0
 101 0062 3D4A     		ldr	r2, .L12+64
 102 0064 1360     		str	r3, [r2]
 198:Generated_Source\PSoC4/ADC_SAR_SEQ.c ****     ADC_SAR_SEQ_SAR_RANGE_INTR_MASK_REG = 0u;
 103              		.loc 1 198 0 discriminator 4
 104 0066 3D4A     		ldr	r2, .L12+68
 105 0068 1360     		str	r3, [r2]
 199:Generated_Source\PSoC4/ADC_SAR_SEQ.c ****     ADC_SAR_SEQ_SAR_INTR_MASK_REG = ADC_SAR_SEQ_SAR_INTR_MASK;
 106              		.loc 1 199 0 discriminator 4
 107 006a 0133     		adds	r3, r3, #1
 108 006c 3C4A     		ldr	r2, .L12+72
 109 006e 1360     		str	r3, [r2]
 200:Generated_Source\PSoC4/ADC_SAR_SEQ.c **** 
 201:Generated_Source\PSoC4/ADC_SAR_SEQ.c ****     #if(ADC_SAR_SEQ_CY_SAR_IP_VER == ADC_SAR_SEQ_CY_SAR_IP_VER0)
 202:Generated_Source\PSoC4/ADC_SAR_SEQ.c ****         ADC_SAR_SEQ_ANA_TRIM_REG = ADC_SAR_SEQ_TRIM_COEF;
 110              		.loc 1 202 0 discriminator 4
 111 0070 0221     		movs	r1, #2
 112 0072 3C4A     		ldr	r2, .L12+76
 113 0074 1160     		str	r1, [r2]
 203:Generated_Source\PSoC4/ADC_SAR_SEQ.c ****     #endif /* (ADC_SAR_SEQ_CY_SAR_IP_VER == ADC_SAR_SEQ_CY_SAR_IP_VER0) */
 204:Generated_Source\PSoC4/ADC_SAR_SEQ.c **** 
 205:Generated_Source\PSoC4/ADC_SAR_SEQ.c ****     /* Read and modify default configuration based on characterization */
 206:Generated_Source\PSoC4/ADC_SAR_SEQ.c ****     tmpRegVal = ADC_SAR_SEQ_SAR_DFT_CTRL_REG;
 114              		.loc 1 206 0 discriminator 4
 115 0076 3C49     		ldr	r1, .L12+80
 116 0078 0868     		ldr	r0, [r1]
 117              	.LVL2:
 207:Generated_Source\PSoC4/ADC_SAR_SEQ.c ****     tmpRegVal &= (uint32)~ADC_SAR_SEQ_DCEN;
 118              		.loc 1 207 0 discriminator 4
 119 007a 3C4A     		ldr	r2, .L12+84
 120 007c 0240     		ands	r2, r0
 121              	.LVL3:
 208:Generated_Source\PSoC4/ADC_SAR_SEQ.c ****     
 209:Generated_Source\PSoC4/ADC_SAR_SEQ.c ****     #if(ADC_SAR_SEQ_CY_SAR_IP_VER == ADC_SAR_SEQ_CY_SAR_IP_VER0)
 210:Generated_Source\PSoC4/ADC_SAR_SEQ.c ****         #if(ADC_SAR_SEQ_NOMINAL_CLOCK_FREQ > (ADC_SAR_SEQ_MAX_FREQUENCY / 2))
 211:Generated_Source\PSoC4/ADC_SAR_SEQ.c ****             tmpRegVal |= ADC_SAR_SEQ_SEL_CSEL_DFT_CHAR;
 212:Generated_Source\PSoC4/ADC_SAR_SEQ.c ****         #else  /* clock speed < 9 Mhz */
 213:Generated_Source\PSoC4/ADC_SAR_SEQ.c ****             tmpRegVal |= ADC_SAR_SEQ_DLY_INC;
 122              		.loc 1 213 0 discriminator 4
 123 007e 1343     		orrs	r3, r2
 124              	.LVL4:
 214:Generated_Source\PSoC4/ADC_SAR_SEQ.c ****         #endif /* clock speed > 9 Mhz */
 215:Generated_Source\PSoC4/ADC_SAR_SEQ.c ****     #else
 216:Generated_Source\PSoC4/ADC_SAR_SEQ.c ****         #if ((ADC_SAR_SEQ_DEFAULT_VREF_SEL == ADC_SAR_SEQ__INTERNAL1024) || \
ARM GAS  C:\Users\Keyarash\AppData\Local\Temp\ccWKO81o.s 			page 7


 217:Generated_Source\PSoC4/ADC_SAR_SEQ.c ****              (ADC_SAR_SEQ_DEFAULT_VREF_SEL == ADC_SAR_SEQ__INTERNALVREF))
 218:Generated_Source\PSoC4/ADC_SAR_SEQ.c ****             tmpRegVal |= ADC_SAR_SEQ_DLY_INC;
 219:Generated_Source\PSoC4/ADC_SAR_SEQ.c ****         #else
 220:Generated_Source\PSoC4/ADC_SAR_SEQ.c ****             tmpRegVal |= ADC_SAR_SEQ_DCEN;
 221:Generated_Source\PSoC4/ADC_SAR_SEQ.c ****             tmpRegVal &= (uint32)~ADC_SAR_SEQ_DLY_INC;
 222:Generated_Source\PSoC4/ADC_SAR_SEQ.c ****         #endif /* ((ADC_SAR_SEQ_DEFAULT_VREF_SEL == ADC_SAR_SEQ__INTERNAL1024) || \
 223:Generated_Source\PSoC4/ADC_SAR_SEQ.c ****                    (ADC_SAR_SEQ_DEFAULT_VREF_SEL == ADC_SAR_SEQ__INTERNALVREF)) */
 224:Generated_Source\PSoC4/ADC_SAR_SEQ.c ****     #endif /* (ADC_SAR_SEQ_CY_SAR_IP_VER == ADC_SAR_SEQ_CY_SAR_IP_VER0) */
 225:Generated_Source\PSoC4/ADC_SAR_SEQ.c ****     
 226:Generated_Source\PSoC4/ADC_SAR_SEQ.c ****     ADC_SAR_SEQ_SAR_DFT_CTRL_REG = tmpRegVal;
 125              		.loc 1 226 0 discriminator 4
 126 0080 0B60     		str	r3, [r1]
 127              	.LVL5:
 227:Generated_Source\PSoC4/ADC_SAR_SEQ.c **** 
 228:Generated_Source\PSoC4/ADC_SAR_SEQ.c ****     #if(ADC_SAR_SEQ_MAX_RESOLUTION != ADC_SAR_SEQ_RESOLUTION_12)
 229:Generated_Source\PSoC4/ADC_SAR_SEQ.c ****         ADC_SAR_SEQ_WOUNDING_REG = ADC_SAR_SEQ_ALT_WOUNDING;
 230:Generated_Source\PSoC4/ADC_SAR_SEQ.c ****     #endif /* ADC_SAR_SEQ_MAX_RESOLUTION != ADC_SAR_SEQ_RESOLUTION_12 */
 231:Generated_Source\PSoC4/ADC_SAR_SEQ.c **** 
 232:Generated_Source\PSoC4/ADC_SAR_SEQ.c ****     for(chNum = 0u; chNum < ADC_SAR_SEQ_TOTAL_CHANNELS_NUM; chNum++)
 128              		.loc 1 232 0 discriminator 4
 129 0082 0024     		movs	r4, #0
 130 0084 45E0     		b	.L3
 131              	.LVL6:
 132              	.L9:
 233:Generated_Source\PSoC4/ADC_SAR_SEQ.c ****     {
 234:Generated_Source\PSoC4/ADC_SAR_SEQ.c ****         tmpRegVal = (ADC_SAR_SEQ_channelsConfig[chNum] & ADC_SAR_SEQ_CHANNEL_CONFIG_MASK);
 133              		.loc 1 234 0
 134 0086 3A49     		ldr	r1, .L12+88
 135 0088 A200     		lsls	r2, r4, #2
 136 008a 5058     		ldr	r0, [r2, r1]
 137 008c DC23     		movs	r3, #220
 138 008e 9B01     		lsls	r3, r3, #6
 139 0090 0340     		ands	r3, r0
 140              	.LVL7:
 235:Generated_Source\PSoC4/ADC_SAR_SEQ.c ****         #if(ADC_SAR_SEQ_TOTAL_CHANNELS_NUM > 1u)
 236:Generated_Source\PSoC4/ADC_SAR_SEQ.c ****             tmpRegVal |= ADC_SAR_SEQ_InputsPlacement[chNum];
 141              		.loc 1 236 0
 142 0092 0919     		adds	r1, r1, r4
 143 0094 097A     		ldrb	r1, [r1, #8]
 144 0096 0B43     		orrs	r3, r1
 145              	.LVL8:
 237:Generated_Source\PSoC4/ADC_SAR_SEQ.c ****         #endif /* End ADC_SAR_SEQ_TOTAL_CHANNELS_NUM > 1u */
 238:Generated_Source\PSoC4/ADC_SAR_SEQ.c ****         
 239:Generated_Source\PSoC4/ADC_SAR_SEQ.c ****         
 240:Generated_Source\PSoC4/ADC_SAR_SEQ.c ****         /* When the part is limited to 10-bit then the SUB_RESOLUTION bit
 241:Generated_Source\PSoC4/ADC_SAR_SEQ.c ****         *  will be ignored and the RESOLUTION bit selects between 10-bit
 242:Generated_Source\PSoC4/ADC_SAR_SEQ.c ****         *  (0) and 8-bit (1) resolution.
 243:Generated_Source\PSoC4/ADC_SAR_SEQ.c ****         */
 244:Generated_Source\PSoC4/ADC_SAR_SEQ.c ****         #if((ADC_SAR_SEQ_MAX_RESOLUTION != ADC_SAR_SEQ_RESOLUTION_12) && \
 245:Generated_Source\PSoC4/ADC_SAR_SEQ.c ****             (ADC_SAR_SEQ_ALT_WOUNDING == ADC_SAR_SEQ_WOUNDING_10BIT))
 246:Generated_Source\PSoC4/ADC_SAR_SEQ.c ****             tmpRegVal &= (uint32)(~ADC_SAR_SEQ_ALT_RESOLUTION_ON);
 247:Generated_Source\PSoC4/ADC_SAR_SEQ.c ****         #endif /* ADC_SAR_SEQ_MAX_RESOLUTION != ADC_SAR_SEQ_RESOLUTION_12 */
 248:Generated_Source\PSoC4/ADC_SAR_SEQ.c **** 
 249:Generated_Source\PSoC4/ADC_SAR_SEQ.c ****         #if(ADC_SAR_SEQ_INJ_CHANNEL_ENABLED)
 250:Generated_Source\PSoC4/ADC_SAR_SEQ.c ****         if(chNum < ADC_SAR_SEQ_SEQUENCED_CHANNELS_NUM)
 251:Generated_Source\PSoC4/ADC_SAR_SEQ.c ****         #endif /* ADC_SAR_SEQ_INJ_CHANNEL_ENABLED */
 252:Generated_Source\PSoC4/ADC_SAR_SEQ.c ****         {
ARM GAS  C:\Users\Keyarash\AppData\Local\Temp\ccWKO81o.s 			page 8


 253:Generated_Source\PSoC4/ADC_SAR_SEQ.c ****             CY_SET_REG32((reg32 *)(ADC_SAR_SEQ_SAR_CHAN_CONFIG_IND + (uint32)(chNum << 2)), tmpRegV
 146              		.loc 1 253 0
 147 0098 3649     		ldr	r1, .L12+92
 148 009a 8C46     		mov	ip, r1
 149 009c 6244     		add	r2, r2, ip
 150 009e 1360     		str	r3, [r2]
 254:Generated_Source\PSoC4/ADC_SAR_SEQ.c **** 
 255:Generated_Source\PSoC4/ADC_SAR_SEQ.c ****             if((ADC_SAR_SEQ_channelsConfig[chNum] & ADC_SAR_SEQ_IS_SATURATE_EN_MASK) != 0u)
 151              		.loc 1 255 0
 152 00a0 C307     		lsls	r3, r0, #31
 153 00a2 07D5     		bpl	.L4
 154              	.LVL9:
 256:Generated_Source\PSoC4/ADC_SAR_SEQ.c ****             {
 257:Generated_Source\PSoC4/ADC_SAR_SEQ.c ****                 ADC_SAR_SEQ_SAR_SATURATE_INTR_MASK_REG |= (uint16)((uint16)1 << chNum);
 155              		.loc 1 257 0
 156 00a4 2C49     		ldr	r1, .L12+64
 157 00a6 0A68     		ldr	r2, [r1]
 158              	.LVL10:
 159 00a8 0123     		movs	r3, #1
 160 00aa A340     		lsls	r3, r3, r4
 161 00ac 1B04     		lsls	r3, r3, #16
 162 00ae 1B0C     		lsrs	r3, r3, #16
 163 00b0 1343     		orrs	r3, r2
 164 00b2 0B60     		str	r3, [r1]
 165              	.LVL11:
 166              	.L4:
 258:Generated_Source\PSoC4/ADC_SAR_SEQ.c ****             }
 259:Generated_Source\PSoC4/ADC_SAR_SEQ.c **** 
 260:Generated_Source\PSoC4/ADC_SAR_SEQ.c ****             if((ADC_SAR_SEQ_channelsConfig[chNum] & ADC_SAR_SEQ_IS_RANGE_CTRL_EN_MASK) != 0u)
 167              		.loc 1 260 0
 168 00b4 A300     		lsls	r3, r4, #2
 169 00b6 2E4A     		ldr	r2, .L12+88
 170              	.LVL12:
 171 00b8 9B58     		ldr	r3, [r3, r2]
 172 00ba 9B07     		lsls	r3, r3, #30
 173 00bc 07D5     		bpl	.L5
 261:Generated_Source\PSoC4/ADC_SAR_SEQ.c ****             {
 262:Generated_Source\PSoC4/ADC_SAR_SEQ.c ****                 ADC_SAR_SEQ_SAR_RANGE_INTR_MASK_REG |= (uint16)((uint16)1 << chNum);
 174              		.loc 1 262 0
 175 00be 2749     		ldr	r1, .L12+68
 176 00c0 0A68     		ldr	r2, [r1]
 177              	.LVL13:
 178 00c2 0123     		movs	r3, #1
 179 00c4 A340     		lsls	r3, r3, r4
 180 00c6 1B04     		lsls	r3, r3, #16
 181 00c8 1B0C     		lsrs	r3, r3, #16
 182 00ca 1343     		orrs	r3, r2
 183 00cc 0B60     		str	r3, [r1]
 184              	.L5:
 263:Generated_Source\PSoC4/ADC_SAR_SEQ.c ****             }
 264:Generated_Source\PSoC4/ADC_SAR_SEQ.c ****         }
 265:Generated_Source\PSoC4/ADC_SAR_SEQ.c ****         #if(ADC_SAR_SEQ_INJ_CHANNEL_ENABLED)
 266:Generated_Source\PSoC4/ADC_SAR_SEQ.c ****             else
 267:Generated_Source\PSoC4/ADC_SAR_SEQ.c ****             {
 268:Generated_Source\PSoC4/ADC_SAR_SEQ.c ****                 CY_SET_REG32(ADC_SAR_SEQ_SAR_INJ_CHAN_CONFIG_PTR, tmpRegVal | ADC_SAR_SEQ_INJ_TAILG
 269:Generated_Source\PSoC4/ADC_SAR_SEQ.c **** 
 270:Generated_Source\PSoC4/ADC_SAR_SEQ.c ****                 if((ADC_SAR_SEQ_channelsConfig[chNum] & ADC_SAR_SEQ_IS_SATURATE_EN_MASK) != 0u)
ARM GAS  C:\Users\Keyarash\AppData\Local\Temp\ccWKO81o.s 			page 9


 271:Generated_Source\PSoC4/ADC_SAR_SEQ.c ****                 {
 272:Generated_Source\PSoC4/ADC_SAR_SEQ.c ****                     ADC_SAR_SEQ_SAR_INTR_MASK_REG |= ADC_SAR_SEQ_INJ_SATURATE_MASK;
 273:Generated_Source\PSoC4/ADC_SAR_SEQ.c ****                 }
 274:Generated_Source\PSoC4/ADC_SAR_SEQ.c **** 
 275:Generated_Source\PSoC4/ADC_SAR_SEQ.c ****                 if((ADC_SAR_SEQ_channelsConfig[chNum] & ADC_SAR_SEQ_IS_RANGE_CTRL_EN_MASK) != 0u)
 276:Generated_Source\PSoC4/ADC_SAR_SEQ.c ****                 {
 277:Generated_Source\PSoC4/ADC_SAR_SEQ.c ****                     ADC_SAR_SEQ_SAR_INTR_MASK_REG |= ADC_SAR_SEQ_INJ_RANGE_MASK;
 278:Generated_Source\PSoC4/ADC_SAR_SEQ.c ****                 }
 279:Generated_Source\PSoC4/ADC_SAR_SEQ.c ****             }
 280:Generated_Source\PSoC4/ADC_SAR_SEQ.c ****         #endif /* ADC_SAR_SEQ_INJ_CHANNEL_ENABLED */
 281:Generated_Source\PSoC4/ADC_SAR_SEQ.c **** 
 282:Generated_Source\PSoC4/ADC_SAR_SEQ.c ****         if((ADC_SAR_SEQ_channelsConfig[chNum] & ADC_SAR_SEQ_ALT_RESOLUTION_ON) != 0u)
 185              		.loc 1 282 0
 186 00ce A300     		lsls	r3, r4, #2
 187 00d0 274A     		ldr	r2, .L12+88
 188              	.LVL14:
 189 00d2 9B58     		ldr	r3, [r3, r2]
 190 00d4 9A05     		lsls	r2, r3, #22
 191 00d6 02D5     		bpl	.L11
 192              	.LVL15:
 283:Generated_Source\PSoC4/ADC_SAR_SEQ.c ****         {
 284:Generated_Source\PSoC4/ADC_SAR_SEQ.c ****                counts = (int32)ADC_SAR_SEQ_DEFAULT_MAX_WRK_ALT;
 193              		.loc 1 284 0
 194 00d8 8020     		movs	r0, #128
 195              	.LVL16:
 196 00da C000     		lsls	r0, r0, #3
 197 00dc 01E0     		b	.L6
 198              	.LVL17:
 199              	.L11:
 285:Generated_Source\PSoC4/ADC_SAR_SEQ.c ****         }
 286:Generated_Source\PSoC4/ADC_SAR_SEQ.c ****         else
 287:Generated_Source\PSoC4/ADC_SAR_SEQ.c ****         {
 288:Generated_Source\PSoC4/ADC_SAR_SEQ.c ****                counts = (int32)ADC_SAR_SEQ_SAR_WRK_MAX_12BIT;
 200              		.loc 1 288 0
 201 00de 8020     		movs	r0, #128
 202              	.LVL18:
 203 00e0 4001     		lsls	r0, r0, #5
 204              	.L6:
 205              	.LVL19:
 289:Generated_Source\PSoC4/ADC_SAR_SEQ.c ****         }
 290:Generated_Source\PSoC4/ADC_SAR_SEQ.c **** 
 291:Generated_Source\PSoC4/ADC_SAR_SEQ.c ****         if((ADC_SAR_SEQ_channelsConfig[chNum] & ADC_SAR_SEQ_DIFFERENTIAL_EN) == 0u)
 206              		.loc 1 291 0
 207 00e2 DB05     		lsls	r3, r3, #23
 208 00e4 04D4     		bmi	.L7
 292:Generated_Source\PSoC4/ADC_SAR_SEQ.c ****         {
 293:Generated_Source\PSoC4/ADC_SAR_SEQ.c ****             #if((ADC_SAR_SEQ_DEFAULT_SE_RESULT_FORMAT_SEL == ADC_SAR_SEQ__FSIGNED) && \
 294:Generated_Source\PSoC4/ADC_SAR_SEQ.c ****                 (ADC_SAR_SEQ_DEFAULT_NEG_INPUT_SEL == ADC_SAR_SEQ__VREF))
 295:Generated_Source\PSoC4/ADC_SAR_SEQ.c ****                 /* Set offset to the minus half scale to convert results to unsigned format */
 296:Generated_Source\PSoC4/ADC_SAR_SEQ.c ****                 ADC_SAR_SEQ_offset[chNum] = (int16)(counts / -2);
 297:Generated_Source\PSoC4/ADC_SAR_SEQ.c ****             #else
 298:Generated_Source\PSoC4/ADC_SAR_SEQ.c ****                 ADC_SAR_SEQ_offset[chNum] = 0;
 209              		.loc 1 298 0
 210 00e6 6300     		lsls	r3, r4, #1
 211 00e8 0021     		movs	r1, #0
 212 00ea 234A     		ldr	r2, .L12+96
 213 00ec 9952     		strh	r1, [r3, r2]
ARM GAS  C:\Users\Keyarash\AppData\Local\Temp\ccWKO81o.s 			page 10


 214 00ee 03E0     		b	.L8
 215              	.L7:
 299:Generated_Source\PSoC4/ADC_SAR_SEQ.c ****             #endif /* end DEFAULT_SE_RESULT_FORMAT_SEL == ADC_SAR_SEQ__FSIGNED */
 300:Generated_Source\PSoC4/ADC_SAR_SEQ.c ****         }
 301:Generated_Source\PSoC4/ADC_SAR_SEQ.c ****         else    /* Differential channel */
 302:Generated_Source\PSoC4/ADC_SAR_SEQ.c ****         {
 303:Generated_Source\PSoC4/ADC_SAR_SEQ.c ****             #if(ADC_SAR_SEQ_DEFAULT_DIFF_RESULT_FORMAT_SEL == ADC_SAR_SEQ__FUNSIGNED)
 304:Generated_Source\PSoC4/ADC_SAR_SEQ.c ****                 /* Set offset to the half scale to convert results to signed format */
 305:Generated_Source\PSoC4/ADC_SAR_SEQ.c ****                 ADC_SAR_SEQ_offset[chNum] = (int16)(counts / 2);
 306:Generated_Source\PSoC4/ADC_SAR_SEQ.c ****             #else
 307:Generated_Source\PSoC4/ADC_SAR_SEQ.c ****                 ADC_SAR_SEQ_offset[chNum] = 0;
 216              		.loc 1 307 0
 217 00f0 6300     		lsls	r3, r4, #1
 218 00f2 0021     		movs	r1, #0
 219 00f4 204A     		ldr	r2, .L12+96
 220 00f6 9952     		strh	r1, [r3, r2]
 221              	.L8:
 308:Generated_Source\PSoC4/ADC_SAR_SEQ.c ****             #endif /* end ADC_SAR_SEQ_DEFAULT_DIFF_RESULT_FORMAT_SEL == ADC_SAR_SEQ__FUNSIGNED */
 309:Generated_Source\PSoC4/ADC_SAR_SEQ.c ****         }
 310:Generated_Source\PSoC4/ADC_SAR_SEQ.c ****         /* Calculate gain in counts per 10 volts with rounding */
 311:Generated_Source\PSoC4/ADC_SAR_SEQ.c ****         ADC_SAR_SEQ_countsPer10Volt[chNum] = (int16)(((counts * ADC_SAR_SEQ_10MV_COUNTS) +
 222              		.loc 1 311 0 discriminator 2
 223 00f8 204B     		ldr	r3, .L12+100
 224 00fa 5843     		muls	r0, r3
 225              	.LVL20:
 226 00fc 204B     		ldr	r3, .L12+104
 227 00fe 9C46     		mov	ip, r3
 228 0100 6044     		add	r0, r0, ip
 312:Generated_Source\PSoC4/ADC_SAR_SEQ.c ****                             ADC_SAR_SEQ_DEFAULT_VREF_MV_VALUE) / (ADC_SAR_SEQ_DEFAULT_VREF_MV_VALUE
 229              		.loc 1 312 0 discriminator 2
 230 0102 2049     		ldr	r1, .L12+108
 231 0104 FFF7FEFF 		bl	__aeabi_idiv
 232              	.LVL21:
 311:Generated_Source\PSoC4/ADC_SAR_SEQ.c ****                             ADC_SAR_SEQ_DEFAULT_VREF_MV_VALUE) / (ADC_SAR_SEQ_DEFAULT_VREF_MV_VALUE
 233              		.loc 1 311 0 discriminator 2
 234 0108 00B2     		sxth	r0, r0
 235 010a A200     		lsls	r2, r4, #2
 236 010c 1E4B     		ldr	r3, .L12+112
 237 010e D050     		str	r0, [r2, r3]
 232:Generated_Source\PSoC4/ADC_SAR_SEQ.c ****     {
 238              		.loc 1 232 0 discriminator 2
 239 0110 0134     		adds	r4, r4, #1
 240              	.LVL22:
 241              	.L3:
 232:Generated_Source\PSoC4/ADC_SAR_SEQ.c ****     {
 242              		.loc 1 232 0 is_stmt 0 discriminator 1
 243 0112 012C     		cmp	r4, #1
 244 0114 B7D9     		bls	.L9
 313:Generated_Source\PSoC4/ADC_SAR_SEQ.c ****     }
 314:Generated_Source\PSoC4/ADC_SAR_SEQ.c **** }
 245              		.loc 1 314 0 is_stmt 1
 246              		@ sp needed
 247              	.LVL23:
 248 0116 10BD     		pop	{r4, pc}
 249              	.L13:
 250              		.align	2
 251              	.L12:
ARM GAS  C:\Users\Keyarash\AppData\Local\Temp\ccWKO81o.s 			page 11


 252 0118 00000000 		.word	ADC_SAR_SEQ_ISR
 253 011c 20001A40 		.word	1075445792
 254 0120 80031A40 		.word	1075446656
 255 0124 70201013 		.word	319823984
 256 0128 70200013 		.word	318775408
 257 012c 00001A40 		.word	1075445760
 258 0130 CD000080 		.word	-2147483443
 259 0134 04001A40 		.word	1075445764
 260 0138 0000FF0F 		.word	268369920
 261 013c 18001A40 		.word	1075445784
 262 0140 1C001A40 		.word	1075445788
 263 0144 04000400 		.word	262148
 264 0148 10001A40 		.word	1075445776
 265 014c 14001A40 		.word	1075445780
 266 0150 00031A40 		.word	1075446528
 267 0154 40031A40 		.word	1075446592
 268 0158 28021A40 		.word	1075446312
 269 015c 38021A40 		.word	1075446328
 270 0160 18021A40 		.word	1075446296
 271 0164 000F1A40 		.word	1075449600
 272 0168 30001A40 		.word	1075445808
 273 016c FFFFFFDF 		.word	-536870913
 274 0170 00000000 		.word	.LANCHOR0
 275 0174 80001A40 		.word	1075445888
 276 0178 00000000 		.word	ADC_SAR_SEQ_offset
 277 017c 10270000 		.word	10000
 278 0180 E40C0000 		.word	3300
 279 0184 C8190000 		.word	6600
 280 0188 00000000 		.word	ADC_SAR_SEQ_countsPer10Volt
 281              		.cfi_endproc
 282              	.LFE1:
 283              		.size	ADC_SAR_SEQ_Init, .-ADC_SAR_SEQ_Init
 284              		.section	.text.ADC_SAR_SEQ_Enable,"ax",%progbits
 285              		.align	2
 286              		.global	ADC_SAR_SEQ_Enable
 287              		.code	16
 288              		.thumb_func
 289              		.type	ADC_SAR_SEQ_Enable, %function
 290              	ADC_SAR_SEQ_Enable:
 291              	.LFB2:
 315:Generated_Source\PSoC4/ADC_SAR_SEQ.c **** 
 316:Generated_Source\PSoC4/ADC_SAR_SEQ.c **** /*******************************************************************************
 317:Generated_Source\PSoC4/ADC_SAR_SEQ.c **** * Function Name: ADC_SAR_1_Enable
 318:Generated_Source\PSoC4/ADC_SAR_SEQ.c **** ********************************************************************************
 319:Generated_Source\PSoC4/ADC_SAR_SEQ.c **** *
 320:Generated_Source\PSoC4/ADC_SAR_SEQ.c **** * Summary:
 321:Generated_Source\PSoC4/ADC_SAR_SEQ.c **** *  Enables the clock and analog power for SAR ADC.
 322:Generated_Source\PSoC4/ADC_SAR_SEQ.c **** *
 323:Generated_Source\PSoC4/ADC_SAR_SEQ.c **** * Parameters:
 324:Generated_Source\PSoC4/ADC_SAR_SEQ.c **** *  None.
 325:Generated_Source\PSoC4/ADC_SAR_SEQ.c **** *
 326:Generated_Source\PSoC4/ADC_SAR_SEQ.c **** * Return:
 327:Generated_Source\PSoC4/ADC_SAR_SEQ.c **** *  None.
 328:Generated_Source\PSoC4/ADC_SAR_SEQ.c **** *
 329:Generated_Source\PSoC4/ADC_SAR_SEQ.c **** *******************************************************************************/
 330:Generated_Source\PSoC4/ADC_SAR_SEQ.c **** void ADC_SAR_SEQ_Enable(void)
 331:Generated_Source\PSoC4/ADC_SAR_SEQ.c **** {
ARM GAS  C:\Users\Keyarash\AppData\Local\Temp\ccWKO81o.s 			page 12


 292              		.loc 1 331 0
 293              		.cfi_startproc
 294              		@ args = 0, pretend = 0, frame = 0
 295              		@ frame_needed = 0, uses_anonymous_args = 0
 296 0000 10B5     		push	{r4, lr}
 297              		.cfi_def_cfa_offset 8
 298              		.cfi_offset 4, -8
 299              		.cfi_offset 14, -4
 332:Generated_Source\PSoC4/ADC_SAR_SEQ.c ****     if (0u == (ADC_SAR_SEQ_SAR_CTRL_REG & ADC_SAR_SEQ_ENABLE))
 300              		.loc 1 332 0
 301 0002 074B     		ldr	r3, .L16
 302 0004 1B68     		ldr	r3, [r3]
 303 0006 002B     		cmp	r3, #0
 304 0008 08DB     		blt	.L14
 333:Generated_Source\PSoC4/ADC_SAR_SEQ.c ****     {
 334:Generated_Source\PSoC4/ADC_SAR_SEQ.c ****         #if(ADC_SAR_SEQ_CY_SAR_IP_VER != ADC_SAR_SEQ_CY_SAR_IP_VER0)
 335:Generated_Source\PSoC4/ADC_SAR_SEQ.c **** 
 336:Generated_Source\PSoC4/ADC_SAR_SEQ.c ****             while (0u != (ADC_SAR_SEQ_SAR_STATUS_REG & ADC_SAR_SEQ_STATUS_BUSY))
 337:Generated_Source\PSoC4/ADC_SAR_SEQ.c ****             {
 338:Generated_Source\PSoC4/ADC_SAR_SEQ.c ****                 /* wait for SAR to go idle to avoid deadlock */
 339:Generated_Source\PSoC4/ADC_SAR_SEQ.c ****             }
 340:Generated_Source\PSoC4/ADC_SAR_SEQ.c ****         #endif /* (ADC_SAR_SEQ_CY_SAR_IP_VER != ADC_SAR_SEQ_CY_SAR_IP_VER0) */
 341:Generated_Source\PSoC4/ADC_SAR_SEQ.c ****         
 342:Generated_Source\PSoC4/ADC_SAR_SEQ.c ****         ADC_SAR_SEQ_SAR_CTRL_REG |= ADC_SAR_SEQ_ENABLE;
 305              		.loc 1 342 0
 306 000a 054A     		ldr	r2, .L16
 307 000c 1368     		ldr	r3, [r2]
 308 000e 8021     		movs	r1, #128
 309 0010 0906     		lsls	r1, r1, #24
 310 0012 0B43     		orrs	r3, r1
 311 0014 1360     		str	r3, [r2]
 343:Generated_Source\PSoC4/ADC_SAR_SEQ.c ****         
 344:Generated_Source\PSoC4/ADC_SAR_SEQ.c ****         /* The block is ready to use 10 us after the enable signal is set high. */
 345:Generated_Source\PSoC4/ADC_SAR_SEQ.c ****         CyDelayUs(ADC_SAR_SEQ_10US_DELAY);         
 312              		.loc 1 345 0
 313 0016 0A20     		movs	r0, #10
 314 0018 FFF7FEFF 		bl	CyDelayUs
 315              	.LVL24:
 316              	.L14:
 346:Generated_Source\PSoC4/ADC_SAR_SEQ.c ****     }
 347:Generated_Source\PSoC4/ADC_SAR_SEQ.c **** }
 317              		.loc 1 347 0
 318              		@ sp needed
 319 001c 10BD     		pop	{r4, pc}
 320              	.L17:
 321 001e C046     		.align	2
 322              	.L16:
 323 0020 00001A40 		.word	1075445760
 324              		.cfi_endproc
 325              	.LFE2:
 326              		.size	ADC_SAR_SEQ_Enable, .-ADC_SAR_SEQ_Enable
 327              		.section	.text.ADC_SAR_SEQ_Start,"ax",%progbits
 328              		.align	2
 329              		.global	ADC_SAR_SEQ_Start
 330              		.code	16
 331              		.thumb_func
 332              		.type	ADC_SAR_SEQ_Start, %function
ARM GAS  C:\Users\Keyarash\AppData\Local\Temp\ccWKO81o.s 			page 13


 333              	ADC_SAR_SEQ_Start:
 334              	.LFB0:
  64:Generated_Source\PSoC4/ADC_SAR_SEQ.c ****     /* If not Initialized then initialize all required hardware and software */
 335              		.loc 1 64 0
 336              		.cfi_startproc
 337              		@ args = 0, pretend = 0, frame = 0
 338              		@ frame_needed = 0, uses_anonymous_args = 0
 339 0000 10B5     		push	{r4, lr}
 340              		.cfi_def_cfa_offset 8
 341              		.cfi_offset 4, -8
 342              		.cfi_offset 14, -4
  66:Generated_Source\PSoC4/ADC_SAR_SEQ.c ****     {
 343              		.loc 1 66 0
 344 0002 064B     		ldr	r3, .L20
 345 0004 1B78     		ldrb	r3, [r3]
 346 0006 002B     		cmp	r3, #0
 347 0008 04D1     		bne	.L19
  68:Generated_Source\PSoC4/ADC_SAR_SEQ.c ****         ADC_SAR_SEQ_initVar = 1u;
 348              		.loc 1 68 0
 349 000a FFF7FEFF 		bl	ADC_SAR_SEQ_Init
 350              	.LVL25:
  69:Generated_Source\PSoC4/ADC_SAR_SEQ.c ****     }
 351              		.loc 1 69 0
 352 000e 0122     		movs	r2, #1
 353 0010 024B     		ldr	r3, .L20
 354 0012 1A70     		strb	r2, [r3]
 355              	.L19:
  71:Generated_Source\PSoC4/ADC_SAR_SEQ.c **** }
 356              		.loc 1 71 0
 357 0014 FFF7FEFF 		bl	ADC_SAR_SEQ_Enable
 358              	.LVL26:
  72:Generated_Source\PSoC4/ADC_SAR_SEQ.c **** 
 359              		.loc 1 72 0
 360              		@ sp needed
 361 0018 10BD     		pop	{r4, pc}
 362              	.L21:
 363 001a C046     		.align	2
 364              	.L20:
 365 001c 00000000 		.word	.LANCHOR1
 366              		.cfi_endproc
 367              	.LFE0:
 368              		.size	ADC_SAR_SEQ_Start, .-ADC_SAR_SEQ_Start
 369              		.section	.text.ADC_SAR_SEQ_Stop,"ax",%progbits
 370              		.align	2
 371              		.global	ADC_SAR_SEQ_Stop
 372              		.code	16
 373              		.thumb_func
 374              		.type	ADC_SAR_SEQ_Stop, %function
 375              	ADC_SAR_SEQ_Stop:
 376              	.LFB3:
 348:Generated_Source\PSoC4/ADC_SAR_SEQ.c **** 
 349:Generated_Source\PSoC4/ADC_SAR_SEQ.c **** 
 350:Generated_Source\PSoC4/ADC_SAR_SEQ.c **** /*******************************************************************************
 351:Generated_Source\PSoC4/ADC_SAR_SEQ.c **** * Function Name: ADC_SAR_SEQ_Stop
 352:Generated_Source\PSoC4/ADC_SAR_SEQ.c **** ********************************************************************************
 353:Generated_Source\PSoC4/ADC_SAR_SEQ.c **** *
 354:Generated_Source\PSoC4/ADC_SAR_SEQ.c **** * Summary:
ARM GAS  C:\Users\Keyarash\AppData\Local\Temp\ccWKO81o.s 			page 14


 355:Generated_Source\PSoC4/ADC_SAR_SEQ.c **** *  This function stops ADC conversions and puts the ADC into its lowest power
 356:Generated_Source\PSoC4/ADC_SAR_SEQ.c **** *  mode.
 357:Generated_Source\PSoC4/ADC_SAR_SEQ.c **** *
 358:Generated_Source\PSoC4/ADC_SAR_SEQ.c **** * Parameters:
 359:Generated_Source\PSoC4/ADC_SAR_SEQ.c **** *  None.
 360:Generated_Source\PSoC4/ADC_SAR_SEQ.c **** *
 361:Generated_Source\PSoC4/ADC_SAR_SEQ.c **** * Return:
 362:Generated_Source\PSoC4/ADC_SAR_SEQ.c **** *  None.
 363:Generated_Source\PSoC4/ADC_SAR_SEQ.c **** *
 364:Generated_Source\PSoC4/ADC_SAR_SEQ.c **** *******************************************************************************/
 365:Generated_Source\PSoC4/ADC_SAR_SEQ.c **** void ADC_SAR_SEQ_Stop(void)
 366:Generated_Source\PSoC4/ADC_SAR_SEQ.c **** {
 377              		.loc 1 366 0
 378              		.cfi_startproc
 379              		@ args = 0, pretend = 0, frame = 0
 380              		@ frame_needed = 0, uses_anonymous_args = 0
 381              		@ link register save eliminated.
 367:Generated_Source\PSoC4/ADC_SAR_SEQ.c ****     ADC_SAR_SEQ_SAR_CTRL_REG &= (uint32)~ADC_SAR_SEQ_ENABLE;
 382              		.loc 1 367 0
 383 0000 024A     		ldr	r2, .L23
 384 0002 1368     		ldr	r3, [r2]
 385 0004 5B00     		lsls	r3, r3, #1
 386 0006 5B08     		lsrs	r3, r3, #1
 387 0008 1360     		str	r3, [r2]
 368:Generated_Source\PSoC4/ADC_SAR_SEQ.c **** }
 388              		.loc 1 368 0
 389              		@ sp needed
 390 000a 7047     		bx	lr
 391              	.L24:
 392              		.align	2
 393              	.L23:
 394 000c 00001A40 		.word	1075445760
 395              		.cfi_endproc
 396              	.LFE3:
 397              		.size	ADC_SAR_SEQ_Stop, .-ADC_SAR_SEQ_Stop
 398              		.section	.text.ADC_SAR_SEQ_StartConvert,"ax",%progbits
 399              		.align	2
 400              		.global	ADC_SAR_SEQ_StartConvert
 401              		.code	16
 402              		.thumb_func
 403              		.type	ADC_SAR_SEQ_StartConvert, %function
 404              	ADC_SAR_SEQ_StartConvert:
 405              	.LFB4:
 369:Generated_Source\PSoC4/ADC_SAR_SEQ.c **** 
 370:Generated_Source\PSoC4/ADC_SAR_SEQ.c **** 
 371:Generated_Source\PSoC4/ADC_SAR_SEQ.c **** /*******************************************************************************
 372:Generated_Source\PSoC4/ADC_SAR_SEQ.c **** * Function Name: ADC_SAR_SEQ_StartConvert
 373:Generated_Source\PSoC4/ADC_SAR_SEQ.c **** ********************************************************************************
 374:Generated_Source\PSoC4/ADC_SAR_SEQ.c **** *
 375:Generated_Source\PSoC4/ADC_SAR_SEQ.c **** * Summary:
 376:Generated_Source\PSoC4/ADC_SAR_SEQ.c **** *  Description:
 377:Generated_Source\PSoC4/ADC_SAR_SEQ.c **** *  For free running mode, this API starts the conversion process and it
 378:Generated_Source\PSoC4/ADC_SAR_SEQ.c **** *  runs continuously.
 379:Generated_Source\PSoC4/ADC_SAR_SEQ.c **** *
 380:Generated_Source\PSoC4/ADC_SAR_SEQ.c **** *  In a triggered mode, this routine triggers every conversion by
 381:Generated_Source\PSoC4/ADC_SAR_SEQ.c **** *  writing into the FW_TRIGGER bit in SAR_START_CTRL reg. In triggered mode,
 382:Generated_Source\PSoC4/ADC_SAR_SEQ.c **** *  every conversion has to start by this API.
ARM GAS  C:\Users\Keyarash\AppData\Local\Temp\ccWKO81o.s 			page 15


 383:Generated_Source\PSoC4/ADC_SAR_SEQ.c **** *
 384:Generated_Source\PSoC4/ADC_SAR_SEQ.c **** * Parameters:
 385:Generated_Source\PSoC4/ADC_SAR_SEQ.c **** *  None.
 386:Generated_Source\PSoC4/ADC_SAR_SEQ.c **** *
 387:Generated_Source\PSoC4/ADC_SAR_SEQ.c **** * Return:
 388:Generated_Source\PSoC4/ADC_SAR_SEQ.c **** *  None.
 389:Generated_Source\PSoC4/ADC_SAR_SEQ.c **** *
 390:Generated_Source\PSoC4/ADC_SAR_SEQ.c **** *******************************************************************************/
 391:Generated_Source\PSoC4/ADC_SAR_SEQ.c **** void ADC_SAR_SEQ_StartConvert(void)
 392:Generated_Source\PSoC4/ADC_SAR_SEQ.c **** {
 406              		.loc 1 392 0
 407              		.cfi_startproc
 408              		@ args = 0, pretend = 0, frame = 0
 409              		@ frame_needed = 0, uses_anonymous_args = 0
 410              		@ link register save eliminated.
 393:Generated_Source\PSoC4/ADC_SAR_SEQ.c ****     #if(ADC_SAR_SEQ_DEFAULT_SAMPLE_MODE_SEL == ADC_SAR_SEQ__FREERUNNING)
 394:Generated_Source\PSoC4/ADC_SAR_SEQ.c ****         ADC_SAR_SEQ_SAR_SAMPLE_CTRL_REG |= ADC_SAR_SEQ_CONTINUOUS_EN;
 411              		.loc 1 394 0
 412 0000 034A     		ldr	r2, .L26
 413 0002 1368     		ldr	r3, [r2]
 414 0004 8021     		movs	r1, #128
 415 0006 4902     		lsls	r1, r1, #9
 416 0008 0B43     		orrs	r3, r1
 417 000a 1360     		str	r3, [r2]
 395:Generated_Source\PSoC4/ADC_SAR_SEQ.c ****     #else /* Firmware trigger */
 396:Generated_Source\PSoC4/ADC_SAR_SEQ.c ****         ADC_SAR_SEQ_SAR_START_CTRL_REG = ADC_SAR_SEQ_FW_TRIGGER;
 397:Generated_Source\PSoC4/ADC_SAR_SEQ.c ****     #endif /* End ADC_SAR_SEQ_DEFAULT_SAMPLE_MODE == ADC_SAR_SEQ__FREERUNNING */
 398:Generated_Source\PSoC4/ADC_SAR_SEQ.c **** 
 399:Generated_Source\PSoC4/ADC_SAR_SEQ.c **** }
 418              		.loc 1 399 0
 419              		@ sp needed
 420 000c 7047     		bx	lr
 421              	.L27:
 422 000e C046     		.align	2
 423              	.L26:
 424 0010 04001A40 		.word	1075445764
 425              		.cfi_endproc
 426              	.LFE4:
 427              		.size	ADC_SAR_SEQ_StartConvert, .-ADC_SAR_SEQ_StartConvert
 428              		.section	.text.ADC_SAR_SEQ_StopConvert,"ax",%progbits
 429              		.align	2
 430              		.global	ADC_SAR_SEQ_StopConvert
 431              		.code	16
 432              		.thumb_func
 433              		.type	ADC_SAR_SEQ_StopConvert, %function
 434              	ADC_SAR_SEQ_StopConvert:
 435              	.LFB5:
 400:Generated_Source\PSoC4/ADC_SAR_SEQ.c **** 
 401:Generated_Source\PSoC4/ADC_SAR_SEQ.c **** 
 402:Generated_Source\PSoC4/ADC_SAR_SEQ.c **** /*******************************************************************************
 403:Generated_Source\PSoC4/ADC_SAR_SEQ.c **** * Function Name: ADC_SAR_SEQ_StopConvert
 404:Generated_Source\PSoC4/ADC_SAR_SEQ.c **** ********************************************************************************
 405:Generated_Source\PSoC4/ADC_SAR_SEQ.c **** *
 406:Generated_Source\PSoC4/ADC_SAR_SEQ.c **** * Summary:
 407:Generated_Source\PSoC4/ADC_SAR_SEQ.c **** *  Forces the ADC to stop all conversions.
 408:Generated_Source\PSoC4/ADC_SAR_SEQ.c **** *
 409:Generated_Source\PSoC4/ADC_SAR_SEQ.c **** * Parameters:
ARM GAS  C:\Users\Keyarash\AppData\Local\Temp\ccWKO81o.s 			page 16


 410:Generated_Source\PSoC4/ADC_SAR_SEQ.c **** *  None.
 411:Generated_Source\PSoC4/ADC_SAR_SEQ.c **** *
 412:Generated_Source\PSoC4/ADC_SAR_SEQ.c **** * Return:
 413:Generated_Source\PSoC4/ADC_SAR_SEQ.c **** *  None.
 414:Generated_Source\PSoC4/ADC_SAR_SEQ.c **** *
 415:Generated_Source\PSoC4/ADC_SAR_SEQ.c **** *******************************************************************************/
 416:Generated_Source\PSoC4/ADC_SAR_SEQ.c **** void ADC_SAR_SEQ_StopConvert(void)
 417:Generated_Source\PSoC4/ADC_SAR_SEQ.c **** {
 436              		.loc 1 417 0
 437              		.cfi_startproc
 438              		@ args = 0, pretend = 0, frame = 0
 439              		@ frame_needed = 0, uses_anonymous_args = 0
 440              		@ link register save eliminated.
 418:Generated_Source\PSoC4/ADC_SAR_SEQ.c ****     #if(ADC_SAR_SEQ_DEFAULT_SAMPLE_MODE_SEL == ADC_SAR_SEQ__FREERUNNING)
 419:Generated_Source\PSoC4/ADC_SAR_SEQ.c ****         ADC_SAR_SEQ_SAR_SAMPLE_CTRL_REG &= (uint32)(~ADC_SAR_SEQ_CONTINUOUS_EN);
 441              		.loc 1 419 0
 442 0000 024A     		ldr	r2, .L29
 443 0002 1168     		ldr	r1, [r2]
 444 0004 024B     		ldr	r3, .L29+4
 445 0006 0B40     		ands	r3, r1
 446 0008 1360     		str	r3, [r2]
 420:Generated_Source\PSoC4/ADC_SAR_SEQ.c ****     #endif /* ADC_SAR_SEQ_DEFAULT_SAMPLE_MODE == ADC_SAR_SEQ__FREERUNNING */
 421:Generated_Source\PSoC4/ADC_SAR_SEQ.c **** }
 447              		.loc 1 421 0
 448              		@ sp needed
 449 000a 7047     		bx	lr
 450              	.L30:
 451              		.align	2
 452              	.L29:
 453 000c 04001A40 		.word	1075445764
 454 0010 FFFFFEFF 		.word	-65537
 455              		.cfi_endproc
 456              	.LFE5:
 457              		.size	ADC_SAR_SEQ_StopConvert, .-ADC_SAR_SEQ_StopConvert
 458              		.section	.text.ADC_SAR_SEQ_IsEndConversion,"ax",%progbits
 459              		.align	2
 460              		.global	ADC_SAR_SEQ_IsEndConversion
 461              		.code	16
 462              		.thumb_func
 463              		.type	ADC_SAR_SEQ_IsEndConversion, %function
 464              	ADC_SAR_SEQ_IsEndConversion:
 465              	.LFB6:
 422:Generated_Source\PSoC4/ADC_SAR_SEQ.c **** 
 423:Generated_Source\PSoC4/ADC_SAR_SEQ.c **** 
 424:Generated_Source\PSoC4/ADC_SAR_SEQ.c **** /*******************************************************************************
 425:Generated_Source\PSoC4/ADC_SAR_SEQ.c **** * Function Name: ADC_SAR_SEQ_IsEndConversion
 426:Generated_Source\PSoC4/ADC_SAR_SEQ.c **** ********************************************************************************
 427:Generated_Source\PSoC4/ADC_SAR_SEQ.c **** *
 428:Generated_Source\PSoC4/ADC_SAR_SEQ.c **** * Summary:
 429:Generated_Source\PSoC4/ADC_SAR_SEQ.c **** *  Description: Checks for ADC end of conversion for the case one
 430:Generated_Source\PSoC4/ADC_SAR_SEQ.c **** *  channel and end of scan for the case of multiple channels. It acts
 431:Generated_Source\PSoC4/ADC_SAR_SEQ.c **** *  as a software version of the EOC. This function provides the
 432:Generated_Source\PSoC4/ADC_SAR_SEQ.c **** *  programmer with two options. In one mode this function
 433:Generated_Source\PSoC4/ADC_SAR_SEQ.c **** *  immediately returns with the conversion status. In the other mode,
 434:Generated_Source\PSoC4/ADC_SAR_SEQ.c **** *  the function does not return (blocking) until the conversion has
 435:Generated_Source\PSoC4/ADC_SAR_SEQ.c **** *  completed.
 436:Generated_Source\PSoC4/ADC_SAR_SEQ.c **** *
ARM GAS  C:\Users\Keyarash\AppData\Local\Temp\ccWKO81o.s 			page 17


 437:Generated_Source\PSoC4/ADC_SAR_SEQ.c **** * Parameters:
 438:Generated_Source\PSoC4/ADC_SAR_SEQ.c **** *  ADC_RETURN_STATUS        -> Immediately returns conversion result status
 439:Generated_Source\PSoC4/ADC_SAR_SEQ.c **** *  ADC_WAIT_FOR_RESULT      -> Does not return until ADC complete
 440:Generated_Source\PSoC4/ADC_SAR_SEQ.c **** *  ADC_RETURN_STATUS_INJ    -> Immediately returns conversion result status
 441:Generated_Source\PSoC4/ADC_SAR_SEQ.c **** *                              for injection channel
 442:Generated_Source\PSoC4/ADC_SAR_SEQ.c **** *  ADC_WAIT_FOR_RESULT_INJ  -> Does not return until ADC completes injection
 443:Generated_Source\PSoC4/ADC_SAR_SEQ.c **** *                              channel conversion
 444:Generated_Source\PSoC4/ADC_SAR_SEQ.c **** *
 445:Generated_Source\PSoC4/ADC_SAR_SEQ.c **** * Return:
 446:Generated_Source\PSoC4/ADC_SAR_SEQ.c **** *  If a non-zero value is returned, the last conversion or scan has completed.
 447:Generated_Source\PSoC4/ADC_SAR_SEQ.c **** *  If the returned value is zero, the ADC is still in the process of a scan.
 448:Generated_Source\PSoC4/ADC_SAR_SEQ.c **** *
 449:Generated_Source\PSoC4/ADC_SAR_SEQ.c **** *******************************************************************************/
 450:Generated_Source\PSoC4/ADC_SAR_SEQ.c **** uint32 ADC_SAR_SEQ_IsEndConversion(uint32 retMode)
 451:Generated_Source\PSoC4/ADC_SAR_SEQ.c **** {
 466              		.loc 1 451 0
 467              		.cfi_startproc
 468              		@ args = 0, pretend = 0, frame = 0
 469              		@ frame_needed = 0, uses_anonymous_args = 0
 470              		@ link register save eliminated.
 471              	.LVL27:
 472 0000 0200     		movs	r2, r0
 473              	.LVL28:
 452:Generated_Source\PSoC4/ADC_SAR_SEQ.c ****     uint32 status = 0u;
 453:Generated_Source\PSoC4/ADC_SAR_SEQ.c **** 
 454:Generated_Source\PSoC4/ADC_SAR_SEQ.c ****     if((retMode & (ADC_SAR_SEQ_RETURN_STATUS | ADC_SAR_SEQ_WAIT_FOR_RESULT)) != 0u)
 474              		.loc 1 454 0
 475 0002 8307     		lsls	r3, r0, #30
 476 0004 0CD0     		beq	.L35
 477              	.LVL29:
 478              	.L34:
 455:Generated_Source\PSoC4/ADC_SAR_SEQ.c ****     {
 456:Generated_Source\PSoC4/ADC_SAR_SEQ.c ****         do
 457:Generated_Source\PSoC4/ADC_SAR_SEQ.c ****         {
 458:Generated_Source\PSoC4/ADC_SAR_SEQ.c ****             status = ADC_SAR_SEQ_SAR_INTR_REG & ADC_SAR_SEQ_EOS_MASK;
 479              		.loc 1 458 0 discriminator 2
 480 0006 074B     		ldr	r3, .L36
 481 0008 1B68     		ldr	r3, [r3]
 482 000a 0120     		movs	r0, #1
 483 000c 1840     		ands	r0, r3
 484              	.LVL30:
 459:Generated_Source\PSoC4/ADC_SAR_SEQ.c ****         }while((status == 0u) && ((retMode & ADC_SAR_SEQ_WAIT_FOR_RESULT) != 0u));
 485              		.loc 1 459 0 discriminator 2
 486 000e 01D1     		bne	.L33
 487              		.loc 1 459 0 is_stmt 0 discriminator 1
 488 0010 9307     		lsls	r3, r2, #30
 489 0012 F8D4     		bmi	.L34
 490              	.L33:
 460:Generated_Source\PSoC4/ADC_SAR_SEQ.c **** 
 461:Generated_Source\PSoC4/ADC_SAR_SEQ.c ****         if(status != 0u)
 491              		.loc 1 461 0 is_stmt 1
 492 0014 0028     		cmp	r0, #0
 493 0016 04D0     		beq	.L32
 462:Generated_Source\PSoC4/ADC_SAR_SEQ.c ****         {
 463:Generated_Source\PSoC4/ADC_SAR_SEQ.c ****             /* Clear EOS bit */
 464:Generated_Source\PSoC4/ADC_SAR_SEQ.c ****             ADC_SAR_SEQ_SAR_INTR_REG = ADC_SAR_SEQ_EOS_MASK;
 494              		.loc 1 464 0
ARM GAS  C:\Users\Keyarash\AppData\Local\Temp\ccWKO81o.s 			page 18


 495 0018 0122     		movs	r2, #1
 496              	.LVL31:
 497 001a 024B     		ldr	r3, .L36
 498 001c 1A60     		str	r2, [r3]
 499 001e 00E0     		b	.L32
 500              	.LVL32:
 501              	.L35:
 452:Generated_Source\PSoC4/ADC_SAR_SEQ.c **** 
 502              		.loc 1 452 0
 503 0020 0020     		movs	r0, #0
 504              	.LVL33:
 505              	.L32:
 465:Generated_Source\PSoC4/ADC_SAR_SEQ.c ****         }
 466:Generated_Source\PSoC4/ADC_SAR_SEQ.c ****     }
 467:Generated_Source\PSoC4/ADC_SAR_SEQ.c **** 
 468:Generated_Source\PSoC4/ADC_SAR_SEQ.c ****     #if(ADC_SAR_SEQ_INJ_CHANNEL_ENABLED)
 469:Generated_Source\PSoC4/ADC_SAR_SEQ.c ****         if((retMode & (ADC_SAR_SEQ_RETURN_STATUS_INJ | ADC_SAR_SEQ_WAIT_FOR_RESULT_INJ)) != 0u)
 470:Generated_Source\PSoC4/ADC_SAR_SEQ.c ****         {
 471:Generated_Source\PSoC4/ADC_SAR_SEQ.c ****             do
 472:Generated_Source\PSoC4/ADC_SAR_SEQ.c ****             {
 473:Generated_Source\PSoC4/ADC_SAR_SEQ.c ****                 status |= ADC_SAR_SEQ_SAR_INTR_REG & ADC_SAR_SEQ_INJ_EOC_MASK;
 474:Generated_Source\PSoC4/ADC_SAR_SEQ.c ****             }while(((status & ADC_SAR_SEQ_INJ_EOC_MASK) == 0u) &&
 475:Generated_Source\PSoC4/ADC_SAR_SEQ.c ****                    ((retMode & ADC_SAR_SEQ_WAIT_FOR_RESULT_INJ) != 0u));
 476:Generated_Source\PSoC4/ADC_SAR_SEQ.c **** 
 477:Generated_Source\PSoC4/ADC_SAR_SEQ.c ****             if((status & ADC_SAR_SEQ_INJ_EOC_MASK) != 0u)
 478:Generated_Source\PSoC4/ADC_SAR_SEQ.c ****             {
 479:Generated_Source\PSoC4/ADC_SAR_SEQ.c ****                 /* Clear Injection EOS bit */
 480:Generated_Source\PSoC4/ADC_SAR_SEQ.c ****                 ADC_SAR_SEQ_SAR_INTR_REG = ADC_SAR_SEQ_INJ_EOC_MASK;
 481:Generated_Source\PSoC4/ADC_SAR_SEQ.c ****             }
 482:Generated_Source\PSoC4/ADC_SAR_SEQ.c ****         }
 483:Generated_Source\PSoC4/ADC_SAR_SEQ.c ****     #endif /* ADC_SAR_SEQ_INJ_CHANNEL_ENABLED */
 484:Generated_Source\PSoC4/ADC_SAR_SEQ.c **** 
 485:Generated_Source\PSoC4/ADC_SAR_SEQ.c ****     return (status);
 486:Generated_Source\PSoC4/ADC_SAR_SEQ.c **** }
 506              		.loc 1 486 0
 507              		@ sp needed
 508 0022 7047     		bx	lr
 509              	.L37:
 510              		.align	2
 511              	.L36:
 512 0024 10021A40 		.word	1075446288
 513              		.cfi_endproc
 514              	.LFE6:
 515              		.size	ADC_SAR_SEQ_IsEndConversion, .-ADC_SAR_SEQ_IsEndConversion
 516              		.section	.text.ADC_SAR_SEQ_GetResult16,"ax",%progbits
 517              		.align	2
 518              		.global	ADC_SAR_SEQ_GetResult16
 519              		.code	16
 520              		.thumb_func
 521              		.type	ADC_SAR_SEQ_GetResult16, %function
 522              	ADC_SAR_SEQ_GetResult16:
 523              	.LFB7:
 487:Generated_Source\PSoC4/ADC_SAR_SEQ.c **** 
 488:Generated_Source\PSoC4/ADC_SAR_SEQ.c **** 
 489:Generated_Source\PSoC4/ADC_SAR_SEQ.c **** /*******************************************************************************
 490:Generated_Source\PSoC4/ADC_SAR_SEQ.c **** * Function Name: ADC_SAR_SEQ_GetResult16
 491:Generated_Source\PSoC4/ADC_SAR_SEQ.c **** ********************************************************************************
ARM GAS  C:\Users\Keyarash\AppData\Local\Temp\ccWKO81o.s 			page 19


 492:Generated_Source\PSoC4/ADC_SAR_SEQ.c **** *
 493:Generated_Source\PSoC4/ADC_SAR_SEQ.c **** * Summary:
 494:Generated_Source\PSoC4/ADC_SAR_SEQ.c **** *  Gets the data available in the SAR DATA register.
 495:Generated_Source\PSoC4/ADC_SAR_SEQ.c **** *
 496:Generated_Source\PSoC4/ADC_SAR_SEQ.c **** * Parameters:
 497:Generated_Source\PSoC4/ADC_SAR_SEQ.c **** *  chan: The ADC channel in which to return the result. The first channel
 498:Generated_Source\PSoC4/ADC_SAR_SEQ.c **** *  is 0 and the injection channel if enabled is the number of valid channels.
 499:Generated_Source\PSoC4/ADC_SAR_SEQ.c **** *
 500:Generated_Source\PSoC4/ADC_SAR_SEQ.c **** * Return:
 501:Generated_Source\PSoC4/ADC_SAR_SEQ.c **** *  Returns converted data as a signed 16-bit integer
 502:Generated_Source\PSoC4/ADC_SAR_SEQ.c **** *
 503:Generated_Source\PSoC4/ADC_SAR_SEQ.c **** *******************************************************************************/
 504:Generated_Source\PSoC4/ADC_SAR_SEQ.c **** int16 ADC_SAR_SEQ_GetResult16(uint32 chan)
 505:Generated_Source\PSoC4/ADC_SAR_SEQ.c **** {
 524              		.loc 1 505 0
 525              		.cfi_startproc
 526              		@ args = 0, pretend = 0, frame = 0
 527              		@ frame_needed = 0, uses_anonymous_args = 0
 528              	.LVL34:
 529 0000 10B5     		push	{r4, lr}
 530              		.cfi_def_cfa_offset 8
 531              		.cfi_offset 4, -8
 532              		.cfi_offset 14, -4
 533 0002 0400     		movs	r4, r0
 506:Generated_Source\PSoC4/ADC_SAR_SEQ.c ****     uint32 result;
 507:Generated_Source\PSoC4/ADC_SAR_SEQ.c **** 
 508:Generated_Source\PSoC4/ADC_SAR_SEQ.c ****     /* Halt CPU in debug mode if channel is out of valid range */
 509:Generated_Source\PSoC4/ADC_SAR_SEQ.c ****     CYASSERT(chan < ADC_SAR_SEQ_TOTAL_CHANNELS_NUM);
 534              		.loc 1 509 0
 535 0004 0128     		cmp	r0, #1
 536 0006 02D9     		bls	.L39
 537              		.loc 1 509 0 is_stmt 0 discriminator 1
 538 0008 0020     		movs	r0, #0
 539              	.LVL35:
 540 000a FFF7FEFF 		bl	CyHalt
 541              	.LVL36:
 542              	.L39:
 510:Generated_Source\PSoC4/ADC_SAR_SEQ.c **** 
 511:Generated_Source\PSoC4/ADC_SAR_SEQ.c ****     if(chan < ADC_SAR_SEQ_SEQUENCED_CHANNELS_NUM)
 543              		.loc 1 511 0 is_stmt 1
 544 000e 012C     		cmp	r4, #1
 545 0010 07D8     		bhi	.L41
 512:Generated_Source\PSoC4/ADC_SAR_SEQ.c ****     {
 513:Generated_Source\PSoC4/ADC_SAR_SEQ.c ****         result = CY_GET_REG32((reg32 *)(ADC_SAR_SEQ_SAR_CHAN_RESULT_IND + (uint32)(chan << 2u))) &
 546              		.loc 1 513 0
 547 0012 A400     		lsls	r4, r4, #2
 548              	.LVL37:
 549 0014 044B     		ldr	r3, .L42
 550 0016 9C46     		mov	ip, r3
 551 0018 6444     		add	r4, r4, ip
 552 001a 2068     		ldr	r0, [r4]
 553 001c 0004     		lsls	r0, r0, #16
 554 001e 000C     		lsrs	r0, r0, #16
 555              	.LVL38:
 556 0020 00E0     		b	.L40
 557              	.LVL39:
 558              	.L41:
ARM GAS  C:\Users\Keyarash\AppData\Local\Temp\ccWKO81o.s 			page 20


 514:Generated_Source\PSoC4/ADC_SAR_SEQ.c ****                 ADC_SAR_SEQ_RESULT_MASK;
 515:Generated_Source\PSoC4/ADC_SAR_SEQ.c ****     }
 516:Generated_Source\PSoC4/ADC_SAR_SEQ.c ****     else
 517:Generated_Source\PSoC4/ADC_SAR_SEQ.c ****     {
 518:Generated_Source\PSoC4/ADC_SAR_SEQ.c ****         #if(ADC_SAR_SEQ_INJ_CHANNEL_ENABLED)
 519:Generated_Source\PSoC4/ADC_SAR_SEQ.c ****             result = ADC_SAR_SEQ_SAR_INJ_RESULT_REG & ADC_SAR_SEQ_RESULT_MASK;
 520:Generated_Source\PSoC4/ADC_SAR_SEQ.c ****         #else
 521:Generated_Source\PSoC4/ADC_SAR_SEQ.c ****             result = 0u;
 559              		.loc 1 521 0
 560 0022 0020     		movs	r0, #0
 561              	.LVL40:
 562              	.L40:
 522:Generated_Source\PSoC4/ADC_SAR_SEQ.c ****         #endif /* ADC_SAR_SEQ_INJ_CHANNEL_ENABLED */
 523:Generated_Source\PSoC4/ADC_SAR_SEQ.c ****     }
 524:Generated_Source\PSoC4/ADC_SAR_SEQ.c **** 
 525:Generated_Source\PSoC4/ADC_SAR_SEQ.c ****     return ( (int16)result );
 563              		.loc 1 525 0
 564 0024 00B2     		sxth	r0, r0
 565              	.LVL41:
 526:Generated_Source\PSoC4/ADC_SAR_SEQ.c **** }
 566              		.loc 1 526 0
 567              		@ sp needed
 568 0026 10BD     		pop	{r4, pc}
 569              	.L43:
 570              		.align	2
 571              	.L42:
 572 0028 80011A40 		.word	1075446144
 573              		.cfi_endproc
 574              	.LFE7:
 575              		.size	ADC_SAR_SEQ_GetResult16, .-ADC_SAR_SEQ_GetResult16
 576              		.section	.text.ADC_SAR_SEQ_SetChanMask,"ax",%progbits
 577              		.align	2
 578              		.global	ADC_SAR_SEQ_SetChanMask
 579              		.code	16
 580              		.thumb_func
 581              		.type	ADC_SAR_SEQ_SetChanMask, %function
 582              	ADC_SAR_SEQ_SetChanMask:
 583              	.LFB8:
 527:Generated_Source\PSoC4/ADC_SAR_SEQ.c **** 
 528:Generated_Source\PSoC4/ADC_SAR_SEQ.c **** 
 529:Generated_Source\PSoC4/ADC_SAR_SEQ.c **** /*******************************************************************************
 530:Generated_Source\PSoC4/ADC_SAR_SEQ.c **** * Function Name: ADC_SAR_SEQ_SetChanMask
 531:Generated_Source\PSoC4/ADC_SAR_SEQ.c **** ********************************************************************************
 532:Generated_Source\PSoC4/ADC_SAR_SEQ.c **** *
 533:Generated_Source\PSoC4/ADC_SAR_SEQ.c **** * Summary:
 534:Generated_Source\PSoC4/ADC_SAR_SEQ.c **** *  Sets the channel enable mask.
 535:Generated_Source\PSoC4/ADC_SAR_SEQ.c **** *
 536:Generated_Source\PSoC4/ADC_SAR_SEQ.c **** * Parameters:
 537:Generated_Source\PSoC4/ADC_SAR_SEQ.c **** *  mask: Sets which channels that will be
 538:Generated_Source\PSoC4/ADC_SAR_SEQ.c **** *  scanned. Setting bits for channels that do not exist will have no
 539:Generated_Source\PSoC4/ADC_SAR_SEQ.c **** *  effect. For example, if only 6 channels were enabled, setting a
 540:Generated_Source\PSoC4/ADC_SAR_SEQ.c **** *  mask of 0x0103 would only enable the last two channels (0 and 1).
 541:Generated_Source\PSoC4/ADC_SAR_SEQ.c **** *  This API will not enable the injection channel.
 542:Generated_Source\PSoC4/ADC_SAR_SEQ.c **** *  Examples: If the component is setup to sequence through 8
 543:Generated_Source\PSoC4/ADC_SAR_SEQ.c **** *  channels, a mask of 0x000F would enable channels 0, 1, 2, and 3.
 544:Generated_Source\PSoC4/ADC_SAR_SEQ.c **** *
 545:Generated_Source\PSoC4/ADC_SAR_SEQ.c **** * Return:
ARM GAS  C:\Users\Keyarash\AppData\Local\Temp\ccWKO81o.s 			page 21


 546:Generated_Source\PSoC4/ADC_SAR_SEQ.c **** *  None.
 547:Generated_Source\PSoC4/ADC_SAR_SEQ.c **** *
 548:Generated_Source\PSoC4/ADC_SAR_SEQ.c **** *******************************************************************************/
 549:Generated_Source\PSoC4/ADC_SAR_SEQ.c **** void ADC_SAR_SEQ_SetChanMask(uint32 mask)
 550:Generated_Source\PSoC4/ADC_SAR_SEQ.c **** {
 584              		.loc 1 550 0
 585              		.cfi_startproc
 586              		@ args = 0, pretend = 0, frame = 0
 587              		@ frame_needed = 0, uses_anonymous_args = 0
 588              		@ link register save eliminated.
 589              	.LVL42:
 551:Generated_Source\PSoC4/ADC_SAR_SEQ.c ****     ADC_SAR_SEQ_SAR_CHAN_EN_REG = mask & ADC_SAR_SEQ_MAX_CHANNELS_EN_MASK;
 590              		.loc 1 551 0
 591 0000 0323     		movs	r3, #3
 592 0002 1840     		ands	r0, r3
 593              	.LVL43:
 594 0004 014B     		ldr	r3, .L45
 595 0006 1860     		str	r0, [r3]
 552:Generated_Source\PSoC4/ADC_SAR_SEQ.c **** }
 596              		.loc 1 552 0
 597              		@ sp needed
 598 0008 7047     		bx	lr
 599              	.L46:
 600 000a C046     		.align	2
 601              	.L45:
 602 000c 20001A40 		.word	1075445792
 603              		.cfi_endproc
 604              	.LFE8:
 605              		.size	ADC_SAR_SEQ_SetChanMask, .-ADC_SAR_SEQ_SetChanMask
 606              		.section	.text.ADC_SAR_SEQ_SetLowLimit,"ax",%progbits
 607              		.align	2
 608              		.global	ADC_SAR_SEQ_SetLowLimit
 609              		.code	16
 610              		.thumb_func
 611              		.type	ADC_SAR_SEQ_SetLowLimit, %function
 612              	ADC_SAR_SEQ_SetLowLimit:
 613              	.LFB9:
 553:Generated_Source\PSoC4/ADC_SAR_SEQ.c **** 
 554:Generated_Source\PSoC4/ADC_SAR_SEQ.c **** #if(ADC_SAR_SEQ_INJ_CHANNEL_ENABLED)
 555:Generated_Source\PSoC4/ADC_SAR_SEQ.c **** 
 556:Generated_Source\PSoC4/ADC_SAR_SEQ.c **** 
 557:Generated_Source\PSoC4/ADC_SAR_SEQ.c ****     /*******************************************************************************
 558:Generated_Source\PSoC4/ADC_SAR_SEQ.c ****     * Function Name: ADC_SAR_SEQ_EnableInjection
 559:Generated_Source\PSoC4/ADC_SAR_SEQ.c ****     ********************************************************************************
 560:Generated_Source\PSoC4/ADC_SAR_SEQ.c ****     *
 561:Generated_Source\PSoC4/ADC_SAR_SEQ.c ****     * Summary:
 562:Generated_Source\PSoC4/ADC_SAR_SEQ.c ****     *  Enables the injection channel for the next scan only.
 563:Generated_Source\PSoC4/ADC_SAR_SEQ.c ****     *
 564:Generated_Source\PSoC4/ADC_SAR_SEQ.c ****     * Parameters:
 565:Generated_Source\PSoC4/ADC_SAR_SEQ.c ****     *  None.
 566:Generated_Source\PSoC4/ADC_SAR_SEQ.c ****     *
 567:Generated_Source\PSoC4/ADC_SAR_SEQ.c ****     * Return:
 568:Generated_Source\PSoC4/ADC_SAR_SEQ.c ****     *  None.
 569:Generated_Source\PSoC4/ADC_SAR_SEQ.c ****     *
 570:Generated_Source\PSoC4/ADC_SAR_SEQ.c ****     *******************************************************************************/
 571:Generated_Source\PSoC4/ADC_SAR_SEQ.c ****     void ADC_SAR_SEQ_EnableInjection(void)
 572:Generated_Source\PSoC4/ADC_SAR_SEQ.c ****     {
ARM GAS  C:\Users\Keyarash\AppData\Local\Temp\ccWKO81o.s 			page 22


 573:Generated_Source\PSoC4/ADC_SAR_SEQ.c ****         ADC_SAR_SEQ_SAR_INJ_CHAN_CONFIG_REG |= ADC_SAR_SEQ_INJ_CHAN_EN;
 574:Generated_Source\PSoC4/ADC_SAR_SEQ.c ****     }
 575:Generated_Source\PSoC4/ADC_SAR_SEQ.c **** 
 576:Generated_Source\PSoC4/ADC_SAR_SEQ.c **** #endif /* ADC_SAR_SEQ_INJ_CHANNEL_ENABLED */
 577:Generated_Source\PSoC4/ADC_SAR_SEQ.c **** 
 578:Generated_Source\PSoC4/ADC_SAR_SEQ.c **** 
 579:Generated_Source\PSoC4/ADC_SAR_SEQ.c **** /*******************************************************************************
 580:Generated_Source\PSoC4/ADC_SAR_SEQ.c **** * Function Name: ADC_SAR_SEQ_SetLowLimit
 581:Generated_Source\PSoC4/ADC_SAR_SEQ.c **** ********************************************************************************
 582:Generated_Source\PSoC4/ADC_SAR_SEQ.c **** *
 583:Generated_Source\PSoC4/ADC_SAR_SEQ.c **** * Summary:
 584:Generated_Source\PSoC4/ADC_SAR_SEQ.c **** *  Sets the low limit parameter for a limit condition.
 585:Generated_Source\PSoC4/ADC_SAR_SEQ.c **** *
 586:Generated_Source\PSoC4/ADC_SAR_SEQ.c **** * Parameters:
 587:Generated_Source\PSoC4/ADC_SAR_SEQ.c **** *  lowLimit: The low limit for a limit condition.
 588:Generated_Source\PSoC4/ADC_SAR_SEQ.c **** *
 589:Generated_Source\PSoC4/ADC_SAR_SEQ.c **** * Return:
 590:Generated_Source\PSoC4/ADC_SAR_SEQ.c **** *  None.
 591:Generated_Source\PSoC4/ADC_SAR_SEQ.c **** *
 592:Generated_Source\PSoC4/ADC_SAR_SEQ.c **** *******************************************************************************/
 593:Generated_Source\PSoC4/ADC_SAR_SEQ.c **** void ADC_SAR_SEQ_SetLowLimit(uint32 lowLimit)
 594:Generated_Source\PSoC4/ADC_SAR_SEQ.c **** {
 614              		.loc 1 594 0
 615              		.cfi_startproc
 616              		@ args = 0, pretend = 0, frame = 0
 617              		@ frame_needed = 0, uses_anonymous_args = 0
 618              		@ link register save eliminated.
 619              	.LVL44:
 595:Generated_Source\PSoC4/ADC_SAR_SEQ.c ****     ADC_SAR_SEQ_SAR_RANGE_THRES_REG &= (uint32)(~ADC_SAR_SEQ_RANGE_LOW_MASK);
 620              		.loc 1 595 0
 621 0000 054A     		ldr	r2, .L48
 622 0002 1368     		ldr	r3, [r2]
 623 0004 1B0C     		lsrs	r3, r3, #16
 624 0006 1B04     		lsls	r3, r3, #16
 625 0008 1360     		str	r3, [r2]
 596:Generated_Source\PSoC4/ADC_SAR_SEQ.c ****     ADC_SAR_SEQ_SAR_RANGE_THRES_REG |= lowLimit & ADC_SAR_SEQ_RANGE_LOW_MASK;
 626              		.loc 1 596 0
 627 000a 1368     		ldr	r3, [r2]
 628 000c 0004     		lsls	r0, r0, #16
 629              	.LVL45:
 630 000e 000C     		lsrs	r0, r0, #16
 631 0010 1843     		orrs	r0, r3
 632 0012 1060     		str	r0, [r2]
 597:Generated_Source\PSoC4/ADC_SAR_SEQ.c **** }
 633              		.loc 1 597 0
 634              		@ sp needed
 635 0014 7047     		bx	lr
 636              	.L49:
 637 0016 C046     		.align	2
 638              	.L48:
 639 0018 18001A40 		.word	1075445784
 640              		.cfi_endproc
 641              	.LFE9:
 642              		.size	ADC_SAR_SEQ_SetLowLimit, .-ADC_SAR_SEQ_SetLowLimit
 643              		.section	.text.ADC_SAR_SEQ_SetHighLimit,"ax",%progbits
 644              		.align	2
 645              		.global	ADC_SAR_SEQ_SetHighLimit
ARM GAS  C:\Users\Keyarash\AppData\Local\Temp\ccWKO81o.s 			page 23


 646              		.code	16
 647              		.thumb_func
 648              		.type	ADC_SAR_SEQ_SetHighLimit, %function
 649              	ADC_SAR_SEQ_SetHighLimit:
 650              	.LFB10:
 598:Generated_Source\PSoC4/ADC_SAR_SEQ.c **** 
 599:Generated_Source\PSoC4/ADC_SAR_SEQ.c **** 
 600:Generated_Source\PSoC4/ADC_SAR_SEQ.c **** /*******************************************************************************
 601:Generated_Source\PSoC4/ADC_SAR_SEQ.c **** * Function Name: ADC_SAR_SEQ_SetHighLimit
 602:Generated_Source\PSoC4/ADC_SAR_SEQ.c **** ********************************************************************************
 603:Generated_Source\PSoC4/ADC_SAR_SEQ.c **** *
 604:Generated_Source\PSoC4/ADC_SAR_SEQ.c **** * Summary:
 605:Generated_Source\PSoC4/ADC_SAR_SEQ.c **** *  Sets the low limit parameter for a limit condition.
 606:Generated_Source\PSoC4/ADC_SAR_SEQ.c **** *
 607:Generated_Source\PSoC4/ADC_SAR_SEQ.c **** * Parameters:
 608:Generated_Source\PSoC4/ADC_SAR_SEQ.c **** *  highLimit: The high limit for a limit condition.
 609:Generated_Source\PSoC4/ADC_SAR_SEQ.c **** *
 610:Generated_Source\PSoC4/ADC_SAR_SEQ.c **** * Return:
 611:Generated_Source\PSoC4/ADC_SAR_SEQ.c **** *  None.
 612:Generated_Source\PSoC4/ADC_SAR_SEQ.c **** *
 613:Generated_Source\PSoC4/ADC_SAR_SEQ.c **** *******************************************************************************/
 614:Generated_Source\PSoC4/ADC_SAR_SEQ.c **** void ADC_SAR_SEQ_SetHighLimit(uint32 highLimit)
 615:Generated_Source\PSoC4/ADC_SAR_SEQ.c **** {
 651              		.loc 1 615 0
 652              		.cfi_startproc
 653              		@ args = 0, pretend = 0, frame = 0
 654              		@ frame_needed = 0, uses_anonymous_args = 0
 655              		@ link register save eliminated.
 656              	.LVL46:
 616:Generated_Source\PSoC4/ADC_SAR_SEQ.c ****     ADC_SAR_SEQ_SAR_RANGE_THRES_REG &= (uint32)(~ADC_SAR_SEQ_RANGE_HIGH_MASK);
 657              		.loc 1 616 0
 658 0000 044A     		ldr	r2, .L51
 659 0002 1368     		ldr	r3, [r2]
 660 0004 1B04     		lsls	r3, r3, #16
 661 0006 1B0C     		lsrs	r3, r3, #16
 662 0008 1360     		str	r3, [r2]
 617:Generated_Source\PSoC4/ADC_SAR_SEQ.c ****     ADC_SAR_SEQ_SAR_RANGE_THRES_REG |= (uint32)(highLimit << ADC_SAR_SEQ_RANGE_HIGH_OFFSET);
 663              		.loc 1 617 0
 664 000a 1368     		ldr	r3, [r2]
 665 000c 0004     		lsls	r0, r0, #16
 666              	.LVL47:
 667 000e 1843     		orrs	r0, r3
 668 0010 1060     		str	r0, [r2]
 618:Generated_Source\PSoC4/ADC_SAR_SEQ.c **** }
 669              		.loc 1 618 0
 670              		@ sp needed
 671 0012 7047     		bx	lr
 672              	.L52:
 673              		.align	2
 674              	.L51:
 675 0014 18001A40 		.word	1075445784
 676              		.cfi_endproc
 677              	.LFE10:
 678              		.size	ADC_SAR_SEQ_SetHighLimit, .-ADC_SAR_SEQ_SetHighLimit
 679              		.section	.text.ADC_SAR_SEQ_SetLimitMask,"ax",%progbits
 680              		.align	2
 681              		.global	ADC_SAR_SEQ_SetLimitMask
ARM GAS  C:\Users\Keyarash\AppData\Local\Temp\ccWKO81o.s 			page 24


 682              		.code	16
 683              		.thumb_func
 684              		.type	ADC_SAR_SEQ_SetLimitMask, %function
 685              	ADC_SAR_SEQ_SetLimitMask:
 686              	.LFB11:
 619:Generated_Source\PSoC4/ADC_SAR_SEQ.c **** 
 620:Generated_Source\PSoC4/ADC_SAR_SEQ.c **** 
 621:Generated_Source\PSoC4/ADC_SAR_SEQ.c **** /*******************************************************************************
 622:Generated_Source\PSoC4/ADC_SAR_SEQ.c **** * Function Name: ADC_SAR_SEQ_SetLimitMask
 623:Generated_Source\PSoC4/ADC_SAR_SEQ.c **** ********************************************************************************
 624:Generated_Source\PSoC4/ADC_SAR_SEQ.c **** *
 625:Generated_Source\PSoC4/ADC_SAR_SEQ.c **** * Summary:
 626:Generated_Source\PSoC4/ADC_SAR_SEQ.c **** *  Sets the channel limit condition mask.
 627:Generated_Source\PSoC4/ADC_SAR_SEQ.c **** *
 628:Generated_Source\PSoC4/ADC_SAR_SEQ.c **** * Parameters:
 629:Generated_Source\PSoC4/ADC_SAR_SEQ.c **** *  mask: Sets which channels that may cause a
 630:Generated_Source\PSoC4/ADC_SAR_SEQ.c **** *  limit condition interrupt. Setting bits for channels that do not exist
 631:Generated_Source\PSoC4/ADC_SAR_SEQ.c **** *  will have no effect. For example, if only 6 channels were enabled,
 632:Generated_Source\PSoC4/ADC_SAR_SEQ.c **** *  setting a mask of 0x0103 would only enable the last two channels (0 and 1).
 633:Generated_Source\PSoC4/ADC_SAR_SEQ.c **** *
 634:Generated_Source\PSoC4/ADC_SAR_SEQ.c **** * Return:
 635:Generated_Source\PSoC4/ADC_SAR_SEQ.c **** *  None.
 636:Generated_Source\PSoC4/ADC_SAR_SEQ.c **** *
 637:Generated_Source\PSoC4/ADC_SAR_SEQ.c **** *******************************************************************************/
 638:Generated_Source\PSoC4/ADC_SAR_SEQ.c **** void ADC_SAR_SEQ_SetLimitMask(uint32 mask)
 639:Generated_Source\PSoC4/ADC_SAR_SEQ.c **** {
 687              		.loc 1 639 0
 688              		.cfi_startproc
 689              		@ args = 0, pretend = 0, frame = 0
 690              		@ frame_needed = 0, uses_anonymous_args = 0
 691              		@ link register save eliminated.
 692              	.LVL48:
 640:Generated_Source\PSoC4/ADC_SAR_SEQ.c ****     ADC_SAR_SEQ_SAR_RANGE_INTR_MASK_REG = mask & ADC_SAR_SEQ_MAX_CHANNELS_EN_MASK;
 693              		.loc 1 640 0
 694 0000 0323     		movs	r3, #3
 695 0002 1840     		ands	r0, r3
 696              	.LVL49:
 697 0004 014B     		ldr	r3, .L54
 698 0006 1860     		str	r0, [r3]
 641:Generated_Source\PSoC4/ADC_SAR_SEQ.c **** }
 699              		.loc 1 641 0
 700              		@ sp needed
 701 0008 7047     		bx	lr
 702              	.L55:
 703 000a C046     		.align	2
 704              	.L54:
 705 000c 38021A40 		.word	1075446328
 706              		.cfi_endproc
 707              	.LFE11:
 708              		.size	ADC_SAR_SEQ_SetLimitMask, .-ADC_SAR_SEQ_SetLimitMask
 709              		.section	.text.ADC_SAR_SEQ_SetSatMask,"ax",%progbits
 710              		.align	2
 711              		.global	ADC_SAR_SEQ_SetSatMask
 712              		.code	16
 713              		.thumb_func
 714              		.type	ADC_SAR_SEQ_SetSatMask, %function
 715              	ADC_SAR_SEQ_SetSatMask:
ARM GAS  C:\Users\Keyarash\AppData\Local\Temp\ccWKO81o.s 			page 25


 716              	.LFB12:
 642:Generated_Source\PSoC4/ADC_SAR_SEQ.c **** 
 643:Generated_Source\PSoC4/ADC_SAR_SEQ.c **** 
 644:Generated_Source\PSoC4/ADC_SAR_SEQ.c **** /*******************************************************************************
 645:Generated_Source\PSoC4/ADC_SAR_SEQ.c **** * Function Name: ADC_SAR_SEQ_SetSatMask
 646:Generated_Source\PSoC4/ADC_SAR_SEQ.c **** ********************************************************************************
 647:Generated_Source\PSoC4/ADC_SAR_SEQ.c **** *
 648:Generated_Source\PSoC4/ADC_SAR_SEQ.c **** * Summary:
 649:Generated_Source\PSoC4/ADC_SAR_SEQ.c **** *  Sets the channel saturation event mask.
 650:Generated_Source\PSoC4/ADC_SAR_SEQ.c **** *
 651:Generated_Source\PSoC4/ADC_SAR_SEQ.c **** * Parameters:
 652:Generated_Source\PSoC4/ADC_SAR_SEQ.c **** *  mask: Sets which channels that may cause a
 653:Generated_Source\PSoC4/ADC_SAR_SEQ.c **** *  saturation event interrupt. Setting bits for channels that do not exist
 654:Generated_Source\PSoC4/ADC_SAR_SEQ.c **** *  will have no effect. For example, if only 8 channels were enabled,
 655:Generated_Source\PSoC4/ADC_SAR_SEQ.c **** *  setting a mask of 0x01C0 would only enable two channels (6 and 7).
 656:Generated_Source\PSoC4/ADC_SAR_SEQ.c **** *
 657:Generated_Source\PSoC4/ADC_SAR_SEQ.c **** * Return:
 658:Generated_Source\PSoC4/ADC_SAR_SEQ.c **** *  None.
 659:Generated_Source\PSoC4/ADC_SAR_SEQ.c **** *
 660:Generated_Source\PSoC4/ADC_SAR_SEQ.c **** *******************************************************************************/
 661:Generated_Source\PSoC4/ADC_SAR_SEQ.c **** void ADC_SAR_SEQ_SetSatMask(uint32 mask)
 662:Generated_Source\PSoC4/ADC_SAR_SEQ.c **** {
 717              		.loc 1 662 0
 718              		.cfi_startproc
 719              		@ args = 0, pretend = 0, frame = 0
 720              		@ frame_needed = 0, uses_anonymous_args = 0
 721              		@ link register save eliminated.
 722              	.LVL50:
 663:Generated_Source\PSoC4/ADC_SAR_SEQ.c ****     ADC_SAR_SEQ_SAR_SATURATE_INTR_MASK_REG = mask & ADC_SAR_SEQ_MAX_CHANNELS_EN_MASK;
 723              		.loc 1 663 0
 724 0000 0323     		movs	r3, #3
 725 0002 1840     		ands	r0, r3
 726              	.LVL51:
 727 0004 014B     		ldr	r3, .L57
 728 0006 1860     		str	r0, [r3]
 664:Generated_Source\PSoC4/ADC_SAR_SEQ.c **** }
 729              		.loc 1 664 0
 730              		@ sp needed
 731 0008 7047     		bx	lr
 732              	.L58:
 733 000a C046     		.align	2
 734              	.L57:
 735 000c 28021A40 		.word	1075446312
 736              		.cfi_endproc
 737              	.LFE12:
 738              		.size	ADC_SAR_SEQ_SetSatMask, .-ADC_SAR_SEQ_SetSatMask
 739              		.section	.text.ADC_SAR_SEQ_SetOffset,"ax",%progbits
 740              		.align	2
 741              		.global	ADC_SAR_SEQ_SetOffset
 742              		.code	16
 743              		.thumb_func
 744              		.type	ADC_SAR_SEQ_SetOffset, %function
 745              	ADC_SAR_SEQ_SetOffset:
 746              	.LFB13:
 665:Generated_Source\PSoC4/ADC_SAR_SEQ.c **** 
 666:Generated_Source\PSoC4/ADC_SAR_SEQ.c **** 
 667:Generated_Source\PSoC4/ADC_SAR_SEQ.c **** /*******************************************************************************
ARM GAS  C:\Users\Keyarash\AppData\Local\Temp\ccWKO81o.s 			page 26


 668:Generated_Source\PSoC4/ADC_SAR_SEQ.c **** * Function Name: ADC_SAR_SEQ_SetOffset
 669:Generated_Source\PSoC4/ADC_SAR_SEQ.c **** ********************************************************************************
 670:Generated_Source\PSoC4/ADC_SAR_SEQ.c **** *
 671:Generated_Source\PSoC4/ADC_SAR_SEQ.c **** * Summary:
 672:Generated_Source\PSoC4/ADC_SAR_SEQ.c **** *   Description: Sets the ADC offset which is used by the functions
 673:Generated_Source\PSoC4/ADC_SAR_SEQ.c **** *   ADC_CountsTo_uVolts, ADC_CountsTo_mVolts and ADC_CountsTo_Volts
 674:Generated_Source\PSoC4/ADC_SAR_SEQ.c **** *   to substract the offset from the given reading
 675:Generated_Source\PSoC4/ADC_SAR_SEQ.c **** *   before calculating the voltage conversion.
 676:Generated_Source\PSoC4/ADC_SAR_SEQ.c **** *
 677:Generated_Source\PSoC4/ADC_SAR_SEQ.c **** * Parameters:
 678:Generated_Source\PSoC4/ADC_SAR_SEQ.c **** *  chan: ADC channel number.
 679:Generated_Source\PSoC4/ADC_SAR_SEQ.c **** *  offset: This value is a measured value when the
 680:Generated_Source\PSoC4/ADC_SAR_SEQ.c **** *          inputs are shorted or connected to the same input voltage.
 681:Generated_Source\PSoC4/ADC_SAR_SEQ.c **** *
 682:Generated_Source\PSoC4/ADC_SAR_SEQ.c **** * Return:
 683:Generated_Source\PSoC4/ADC_SAR_SEQ.c **** *  None.
 684:Generated_Source\PSoC4/ADC_SAR_SEQ.c **** *
 685:Generated_Source\PSoC4/ADC_SAR_SEQ.c **** * Global variables:
 686:Generated_Source\PSoC4/ADC_SAR_SEQ.c **** *  ADC_SAR_SEQ_Offset:  Modified to set the user provided offset.
 687:Generated_Source\PSoC4/ADC_SAR_SEQ.c **** *
 688:Generated_Source\PSoC4/ADC_SAR_SEQ.c **** *******************************************************************************/
 689:Generated_Source\PSoC4/ADC_SAR_SEQ.c **** void ADC_SAR_SEQ_SetOffset(uint32 chan, int16 offset)
 690:Generated_Source\PSoC4/ADC_SAR_SEQ.c **** {
 747              		.loc 1 690 0
 748              		.cfi_startproc
 749              		@ args = 0, pretend = 0, frame = 0
 750              		@ frame_needed = 0, uses_anonymous_args = 0
 751              	.LVL52:
 752 0000 70B5     		push	{r4, r5, r6, lr}
 753              		.cfi_def_cfa_offset 16
 754              		.cfi_offset 4, -16
 755              		.cfi_offset 5, -12
 756              		.cfi_offset 6, -8
 757              		.cfi_offset 14, -4
 758 0002 0400     		movs	r4, r0
 759 0004 0D00     		movs	r5, r1
 691:Generated_Source\PSoC4/ADC_SAR_SEQ.c ****     /* Halt CPU in debug mode if channel is out of valid range */
 692:Generated_Source\PSoC4/ADC_SAR_SEQ.c ****     CYASSERT(chan < ADC_SAR_SEQ_TOTAL_CHANNELS_NUM);
 760              		.loc 1 692 0
 761 0006 0128     		cmp	r0, #1
 762 0008 02D9     		bls	.L60
 763              		.loc 1 692 0 is_stmt 0 discriminator 1
 764 000a 0020     		movs	r0, #0
 765              	.LVL53:
 766 000c FFF7FEFF 		bl	CyHalt
 767              	.LVL54:
 768              	.L60:
 693:Generated_Source\PSoC4/ADC_SAR_SEQ.c **** 
 694:Generated_Source\PSoC4/ADC_SAR_SEQ.c ****     ADC_SAR_SEQ_offset[chan] = offset;
 769              		.loc 1 694 0 is_stmt 1
 770 0010 6400     		lsls	r4, r4, #1
 771              	.LVL55:
 772 0012 014B     		ldr	r3, .L61
 773 0014 E552     		strh	r5, [r4, r3]
 695:Generated_Source\PSoC4/ADC_SAR_SEQ.c **** }
 774              		.loc 1 695 0
 775              		@ sp needed
ARM GAS  C:\Users\Keyarash\AppData\Local\Temp\ccWKO81o.s 			page 27


 776 0016 70BD     		pop	{r4, r5, r6, pc}
 777              	.L62:
 778              		.align	2
 779              	.L61:
 780 0018 00000000 		.word	ADC_SAR_SEQ_offset
 781              		.cfi_endproc
 782              	.LFE13:
 783              		.size	ADC_SAR_SEQ_SetOffset, .-ADC_SAR_SEQ_SetOffset
 784              		.section	.text.ADC_SAR_SEQ_SetGain,"ax",%progbits
 785              		.align	2
 786              		.global	ADC_SAR_SEQ_SetGain
 787              		.code	16
 788              		.thumb_func
 789              		.type	ADC_SAR_SEQ_SetGain, %function
 790              	ADC_SAR_SEQ_SetGain:
 791              	.LFB14:
 696:Generated_Source\PSoC4/ADC_SAR_SEQ.c **** 
 697:Generated_Source\PSoC4/ADC_SAR_SEQ.c **** 
 698:Generated_Source\PSoC4/ADC_SAR_SEQ.c **** /*******************************************************************************
 699:Generated_Source\PSoC4/ADC_SAR_SEQ.c **** * Function Name: ADC_SAR_SEQ_SetGain
 700:Generated_Source\PSoC4/ADC_SAR_SEQ.c **** ********************************************************************************
 701:Generated_Source\PSoC4/ADC_SAR_SEQ.c **** *
 702:Generated_Source\PSoC4/ADC_SAR_SEQ.c **** * Summary:
 703:Generated_Source\PSoC4/ADC_SAR_SEQ.c **** *  Description: Sets the ADC gain in counts per 10 volt for the voltage
 704:Generated_Source\PSoC4/ADC_SAR_SEQ.c **** *  conversion functions below. This value is set by default by the
 705:Generated_Source\PSoC4/ADC_SAR_SEQ.c **** *  reference and input range settings. It should only be used to further
 706:Generated_Source\PSoC4/ADC_SAR_SEQ.c **** *  calibrate the ADC with a known input or if an external reference is
 707:Generated_Source\PSoC4/ADC_SAR_SEQ.c **** *  used. Affects the ADC_CountsTo_uVolts, ADC_CountsTo_mVolts
 708:Generated_Source\PSoC4/ADC_SAR_SEQ.c **** *  and ADC_CountsTo_Volts functions by supplying the correct
 709:Generated_Source\PSoC4/ADC_SAR_SEQ.c **** *  conversion between ADC counts and voltage.
 710:Generated_Source\PSoC4/ADC_SAR_SEQ.c **** *
 711:Generated_Source\PSoC4/ADC_SAR_SEQ.c **** * Parameters:
 712:Generated_Source\PSoC4/ADC_SAR_SEQ.c **** *  chan: ADC channel number.
 713:Generated_Source\PSoC4/ADC_SAR_SEQ.c **** *  adcGain: ADC gain in counts per 10 volts.
 714:Generated_Source\PSoC4/ADC_SAR_SEQ.c **** *
 715:Generated_Source\PSoC4/ADC_SAR_SEQ.c **** * Return:
 716:Generated_Source\PSoC4/ADC_SAR_SEQ.c **** *  None.
 717:Generated_Source\PSoC4/ADC_SAR_SEQ.c **** *
 718:Generated_Source\PSoC4/ADC_SAR_SEQ.c **** * Global variables:
 719:Generated_Source\PSoC4/ADC_SAR_SEQ.c **** *  ADC_SAR_SEQ_CountsPer10Volt:  modified to set the ADC gain in counts
 720:Generated_Source\PSoC4/ADC_SAR_SEQ.c **** *   per 10 volt.
 721:Generated_Source\PSoC4/ADC_SAR_SEQ.c **** *
 722:Generated_Source\PSoC4/ADC_SAR_SEQ.c **** *******************************************************************************/
 723:Generated_Source\PSoC4/ADC_SAR_SEQ.c **** void ADC_SAR_SEQ_SetGain(uint32 chan, int32 adcGain)
 724:Generated_Source\PSoC4/ADC_SAR_SEQ.c **** {
 792              		.loc 1 724 0
 793              		.cfi_startproc
 794              		@ args = 0, pretend = 0, frame = 0
 795              		@ frame_needed = 0, uses_anonymous_args = 0
 796              	.LVL56:
 797 0000 70B5     		push	{r4, r5, r6, lr}
 798              		.cfi_def_cfa_offset 16
 799              		.cfi_offset 4, -16
 800              		.cfi_offset 5, -12
 801              		.cfi_offset 6, -8
 802              		.cfi_offset 14, -4
 803 0002 0400     		movs	r4, r0
ARM GAS  C:\Users\Keyarash\AppData\Local\Temp\ccWKO81o.s 			page 28


 804 0004 0D00     		movs	r5, r1
 725:Generated_Source\PSoC4/ADC_SAR_SEQ.c ****     /* Halt CPU in debug mode if channel is out of valid range */
 726:Generated_Source\PSoC4/ADC_SAR_SEQ.c ****     CYASSERT(chan < ADC_SAR_SEQ_TOTAL_CHANNELS_NUM);
 805              		.loc 1 726 0
 806 0006 0128     		cmp	r0, #1
 807 0008 02D9     		bls	.L64
 808              		.loc 1 726 0 is_stmt 0 discriminator 1
 809 000a 0020     		movs	r0, #0
 810              	.LVL57:
 811 000c FFF7FEFF 		bl	CyHalt
 812              	.LVL58:
 813              	.L64:
 727:Generated_Source\PSoC4/ADC_SAR_SEQ.c **** 
 728:Generated_Source\PSoC4/ADC_SAR_SEQ.c ****     ADC_SAR_SEQ_countsPer10Volt[chan] = adcGain;
 814              		.loc 1 728 0 is_stmt 1
 815 0010 A400     		lsls	r4, r4, #2
 816              	.LVL59:
 817 0012 014B     		ldr	r3, .L65
 818 0014 E550     		str	r5, [r4, r3]
 729:Generated_Source\PSoC4/ADC_SAR_SEQ.c **** }
 819              		.loc 1 729 0
 820              		@ sp needed
 821              	.LVL60:
 822 0016 70BD     		pop	{r4, r5, r6, pc}
 823              	.L66:
 824              		.align	2
 825              	.L65:
 826 0018 00000000 		.word	ADC_SAR_SEQ_countsPer10Volt
 827              		.cfi_endproc
 828              	.LFE14:
 829              		.size	ADC_SAR_SEQ_SetGain, .-ADC_SAR_SEQ_SetGain
 830              		.section	.text.ADC_SAR_SEQ_CountsTo_mVolts,"ax",%progbits
 831              		.align	2
 832              		.global	ADC_SAR_SEQ_CountsTo_mVolts
 833              		.code	16
 834              		.thumb_func
 835              		.type	ADC_SAR_SEQ_CountsTo_mVolts, %function
 836              	ADC_SAR_SEQ_CountsTo_mVolts:
 837              	.LFB15:
 730:Generated_Source\PSoC4/ADC_SAR_SEQ.c **** 
 731:Generated_Source\PSoC4/ADC_SAR_SEQ.c **** 
 732:Generated_Source\PSoC4/ADC_SAR_SEQ.c **** #if(ADC_SAR_SEQ_DEFAULT_JUSTIFICATION_SEL == ADC_SAR_SEQ__RIGHT)
 733:Generated_Source\PSoC4/ADC_SAR_SEQ.c **** 
 734:Generated_Source\PSoC4/ADC_SAR_SEQ.c **** 
 735:Generated_Source\PSoC4/ADC_SAR_SEQ.c ****     /*******************************************************************************
 736:Generated_Source\PSoC4/ADC_SAR_SEQ.c ****     * Function Name: ADC_SAR_SEQ_CountsTo_mVolts
 737:Generated_Source\PSoC4/ADC_SAR_SEQ.c ****     ********************************************************************************
 738:Generated_Source\PSoC4/ADC_SAR_SEQ.c ****     *
 739:Generated_Source\PSoC4/ADC_SAR_SEQ.c ****     * Summary:
 740:Generated_Source\PSoC4/ADC_SAR_SEQ.c ****     *  This function converts ADC counts to mVolts
 741:Generated_Source\PSoC4/ADC_SAR_SEQ.c ****     *  This function is not available when left data format justification selected.
 742:Generated_Source\PSoC4/ADC_SAR_SEQ.c ****     *
 743:Generated_Source\PSoC4/ADC_SAR_SEQ.c ****     * Parameters:
 744:Generated_Source\PSoC4/ADC_SAR_SEQ.c ****     *  chan: The ADC channel number.
 745:Generated_Source\PSoC4/ADC_SAR_SEQ.c ****     *  adcCounts: Result from the ADC conversion
 746:Generated_Source\PSoC4/ADC_SAR_SEQ.c ****     *
 747:Generated_Source\PSoC4/ADC_SAR_SEQ.c ****     * Return:
ARM GAS  C:\Users\Keyarash\AppData\Local\Temp\ccWKO81o.s 			page 29


 748:Generated_Source\PSoC4/ADC_SAR_SEQ.c ****     *  Results in mVolts
 749:Generated_Source\PSoC4/ADC_SAR_SEQ.c ****     *
 750:Generated_Source\PSoC4/ADC_SAR_SEQ.c ****     * Global variables:
 751:Generated_Source\PSoC4/ADC_SAR_SEQ.c ****     *  ADC_SAR_SEQ_countsPer10Volt:  used to convert ADC counts to mVolts.
 752:Generated_Source\PSoC4/ADC_SAR_SEQ.c ****     *  ADC_SAR_SEQ_Offset:  Used as the offset while converting ADC counts
 753:Generated_Source\PSoC4/ADC_SAR_SEQ.c ****     *   to mVolts.
 754:Generated_Source\PSoC4/ADC_SAR_SEQ.c ****     *
 755:Generated_Source\PSoC4/ADC_SAR_SEQ.c ****     *******************************************************************************/
 756:Generated_Source\PSoC4/ADC_SAR_SEQ.c ****     int16 ADC_SAR_SEQ_CountsTo_mVolts(uint32 chan, int16 adcCounts)
 757:Generated_Source\PSoC4/ADC_SAR_SEQ.c ****     {
 838              		.loc 1 757 0
 839              		.cfi_startproc
 840              		@ args = 0, pretend = 0, frame = 0
 841              		@ frame_needed = 0, uses_anonymous_args = 0
 842              	.LVL61:
 843 0000 70B5     		push	{r4, r5, r6, lr}
 844              		.cfi_def_cfa_offset 16
 845              		.cfi_offset 4, -16
 846              		.cfi_offset 5, -12
 847              		.cfi_offset 6, -8
 848              		.cfi_offset 14, -4
 849 0002 0400     		movs	r4, r0
 850 0004 0D00     		movs	r5, r1
 758:Generated_Source\PSoC4/ADC_SAR_SEQ.c ****         int16 mVolts;
 759:Generated_Source\PSoC4/ADC_SAR_SEQ.c **** 
 760:Generated_Source\PSoC4/ADC_SAR_SEQ.c ****         /* Halt CPU in debug mode if channel is out of valid range */
 761:Generated_Source\PSoC4/ADC_SAR_SEQ.c ****         CYASSERT(chan < ADC_SAR_SEQ_TOTAL_CHANNELS_NUM);
 851              		.loc 1 761 0
 852 0006 0128     		cmp	r0, #1
 853 0008 02D9     		bls	.L68
 854              		.loc 1 761 0 is_stmt 0 discriminator 1
 855 000a 0020     		movs	r0, #0
 856              	.LVL62:
 857 000c FFF7FEFF 		bl	CyHalt
 858              	.LVL63:
 859              	.L68:
 762:Generated_Source\PSoC4/ADC_SAR_SEQ.c **** 
 763:Generated_Source\PSoC4/ADC_SAR_SEQ.c ****         /* Divide the adcCount when accumulate averaging mode selected */
 764:Generated_Source\PSoC4/ADC_SAR_SEQ.c ****         #if(ADC_SAR_SEQ_DEFAULT_AVG_MODE == ADC_SAR_SEQ__ACCUMULATE)
 765:Generated_Source\PSoC4/ADC_SAR_SEQ.c ****             if((ADC_SAR_SEQ_channelsConfig[chan] & ADC_SAR_SEQ_AVERAGING_EN) != 0u)
 766:Generated_Source\PSoC4/ADC_SAR_SEQ.c ****             {
 767:Generated_Source\PSoC4/ADC_SAR_SEQ.c ****                 adcCounts /= ADC_SAR_SEQ_DEFAULT_AVG_SAMPLES_DIV;
 768:Generated_Source\PSoC4/ADC_SAR_SEQ.c ****             }
 769:Generated_Source\PSoC4/ADC_SAR_SEQ.c ****         #endif /* ADC_SAR_SEQ_DEFAULT_AVG_MODE == ADC_SAR_SEQ__ACCUMULATE */
 770:Generated_Source\PSoC4/ADC_SAR_SEQ.c **** 
 771:Generated_Source\PSoC4/ADC_SAR_SEQ.c ****         /* Subtract ADC offset */
 772:Generated_Source\PSoC4/ADC_SAR_SEQ.c ****         adcCounts -= ADC_SAR_SEQ_offset[chan];
 860              		.loc 1 772 0 is_stmt 1
 861 0010 6300     		lsls	r3, r4, #1
 862 0012 0F4A     		ldr	r2, .L71
 863 0014 995A     		ldrh	r1, [r3, r2]
 864 0016 09B2     		sxth	r1, r1
 865 0018 691A     		subs	r1, r5, r1
 866 001a 09B2     		sxth	r1, r1
 867              	.LVL64:
 773:Generated_Source\PSoC4/ADC_SAR_SEQ.c **** 
 774:Generated_Source\PSoC4/ADC_SAR_SEQ.c ****         mVolts = (int16)((((int32)adcCounts * ADC_SAR_SEQ_10MV_COUNTS) + ( (adcCounts > 0) ?
ARM GAS  C:\Users\Keyarash\AppData\Local\Temp\ccWKO81o.s 			page 30


 868              		.loc 1 774 0
 869 001c 0D48     		ldr	r0, .L71+4
 870 001e 4843     		muls	r0, r1
 775:Generated_Source\PSoC4/ADC_SAR_SEQ.c ****                  (ADC_SAR_SEQ_countsPer10Volt[chan] / 2) : (-(ADC_SAR_SEQ_countsPer10Volt[chan] / 2
 871              		.loc 1 775 0
 872 0020 0029     		cmp	r1, #0
 873 0022 06DD     		ble	.L69
 874              		.loc 1 775 0 is_stmt 0 discriminator 1
 875 0024 A300     		lsls	r3, r4, #2
 876 0026 0C4A     		ldr	r2, .L71+8
 877 0028 9A58     		ldr	r2, [r3, r2]
 878 002a D30F     		lsrs	r3, r2, #31
 879 002c 9A18     		adds	r2, r3, r2
 880 002e 5310     		asrs	r3, r2, #1
 881 0030 06E0     		b	.L70
 882              	.L69:
 883              		.loc 1 775 0 discriminator 2
 884 0032 A300     		lsls	r3, r4, #2
 885 0034 084A     		ldr	r2, .L71+8
 886 0036 9A58     		ldr	r2, [r3, r2]
 887 0038 D30F     		lsrs	r3, r2, #31
 888 003a 9A18     		adds	r2, r3, r2
 889 003c 5210     		asrs	r2, r2, #1
 890 003e 5342     		rsbs	r3, r2, #0
 891              	.L70:
 774:Generated_Source\PSoC4/ADC_SAR_SEQ.c ****                  (ADC_SAR_SEQ_countsPer10Volt[chan] / 2) : (-(ADC_SAR_SEQ_countsPer10Volt[chan] / 2
 892              		.loc 1 774 0 is_stmt 1
 893 0040 1818     		adds	r0, r3, r0
 776:Generated_Source\PSoC4/ADC_SAR_SEQ.c ****                  / ADC_SAR_SEQ_countsPer10Volt[chan]);
 894              		.loc 1 776 0
 895 0042 A400     		lsls	r4, r4, #2
 896              	.LVL65:
 897 0044 044B     		ldr	r3, .L71+8
 898 0046 E158     		ldr	r1, [r4, r3]
 899              	.LVL66:
 900 0048 FFF7FEFF 		bl	__aeabi_idiv
 901              	.LVL67:
 774:Generated_Source\PSoC4/ADC_SAR_SEQ.c ****                  (ADC_SAR_SEQ_countsPer10Volt[chan] / 2) : (-(ADC_SAR_SEQ_countsPer10Volt[chan] / 2
 902              		.loc 1 774 0
 903 004c 00B2     		sxth	r0, r0
 904              	.LVL68:
 777:Generated_Source\PSoC4/ADC_SAR_SEQ.c **** 
 778:Generated_Source\PSoC4/ADC_SAR_SEQ.c ****         return( mVolts );
 779:Generated_Source\PSoC4/ADC_SAR_SEQ.c ****     }
 905              		.loc 1 779 0
 906              		@ sp needed
 907 004e 70BD     		pop	{r4, r5, r6, pc}
 908              	.L72:
 909              		.align	2
 910              	.L71:
 911 0050 00000000 		.word	ADC_SAR_SEQ_offset
 912 0054 10270000 		.word	10000
 913 0058 00000000 		.word	ADC_SAR_SEQ_countsPer10Volt
 914              		.cfi_endproc
 915              	.LFE15:
 916              		.size	ADC_SAR_SEQ_CountsTo_mVolts, .-ADC_SAR_SEQ_CountsTo_mVolts
 917              		.global	__aeabi_lmul
ARM GAS  C:\Users\Keyarash\AppData\Local\Temp\ccWKO81o.s 			page 31


 918              		.global	__aeabi_ldivmod
 919              		.section	.text.ADC_SAR_SEQ_CountsTo_uVolts,"ax",%progbits
 920              		.align	2
 921              		.global	ADC_SAR_SEQ_CountsTo_uVolts
 922              		.code	16
 923              		.thumb_func
 924              		.type	ADC_SAR_SEQ_CountsTo_uVolts, %function
 925              	ADC_SAR_SEQ_CountsTo_uVolts:
 926              	.LFB16:
 780:Generated_Source\PSoC4/ADC_SAR_SEQ.c **** 
 781:Generated_Source\PSoC4/ADC_SAR_SEQ.c **** 
 782:Generated_Source\PSoC4/ADC_SAR_SEQ.c ****     /*******************************************************************************
 783:Generated_Source\PSoC4/ADC_SAR_SEQ.c ****     * Function Name: ADC_SAR_SEQ_CountsTo_uVolts
 784:Generated_Source\PSoC4/ADC_SAR_SEQ.c ****     ********************************************************************************
 785:Generated_Source\PSoC4/ADC_SAR_SEQ.c ****     *
 786:Generated_Source\PSoC4/ADC_SAR_SEQ.c ****     * Summary:
 787:Generated_Source\PSoC4/ADC_SAR_SEQ.c ****     *  This function converts ADC counts to micro Volts
 788:Generated_Source\PSoC4/ADC_SAR_SEQ.c ****     *  This function is not available when left data format justification selected.
 789:Generated_Source\PSoC4/ADC_SAR_SEQ.c ****     *
 790:Generated_Source\PSoC4/ADC_SAR_SEQ.c ****     * Parameters:
 791:Generated_Source\PSoC4/ADC_SAR_SEQ.c ****     *  chan: The ADC channel number.
 792:Generated_Source\PSoC4/ADC_SAR_SEQ.c ****     *  adcCounts: Result from the ADC conversion
 793:Generated_Source\PSoC4/ADC_SAR_SEQ.c ****     *
 794:Generated_Source\PSoC4/ADC_SAR_SEQ.c ****     * Return:
 795:Generated_Source\PSoC4/ADC_SAR_SEQ.c ****     *  Results in uVolts
 796:Generated_Source\PSoC4/ADC_SAR_SEQ.c ****     *
 797:Generated_Source\PSoC4/ADC_SAR_SEQ.c ****     * Global variables:
 798:Generated_Source\PSoC4/ADC_SAR_SEQ.c ****     *  ADC_SAR_SEQ_countsPer10Volt:  used to convert ADC counts to uVolts.
 799:Generated_Source\PSoC4/ADC_SAR_SEQ.c ****     *  ADC_SAR_SEQ_Offset:  Used as the offset while converting ADC counts
 800:Generated_Source\PSoC4/ADC_SAR_SEQ.c ****     *   to mVolts.
 801:Generated_Source\PSoC4/ADC_SAR_SEQ.c ****     *
 802:Generated_Source\PSoC4/ADC_SAR_SEQ.c ****     * Theory:
 803:Generated_Source\PSoC4/ADC_SAR_SEQ.c ****     *  Care must be taken to not exceed the maximum value for a 31 bit signed
 804:Generated_Source\PSoC4/ADC_SAR_SEQ.c ****     *  number in the conversion to uVolts and at the same time not loose
 805:Generated_Source\PSoC4/ADC_SAR_SEQ.c ****     *  resolution.
 806:Generated_Source\PSoC4/ADC_SAR_SEQ.c ****     *  To convert adcCounts to microVolts it is required to be multiplied
 807:Generated_Source\PSoC4/ADC_SAR_SEQ.c ****     *  on 10 million and later divide on gain in counts per 10V.
 808:Generated_Source\PSoC4/ADC_SAR_SEQ.c ****     *
 809:Generated_Source\PSoC4/ADC_SAR_SEQ.c ****     *******************************************************************************/
 810:Generated_Source\PSoC4/ADC_SAR_SEQ.c ****     int32 ADC_SAR_SEQ_CountsTo_uVolts(uint32 chan, int16 adcCounts)
 811:Generated_Source\PSoC4/ADC_SAR_SEQ.c ****     {
 927              		.loc 1 811 0
 928              		.cfi_startproc
 929              		@ args = 0, pretend = 0, frame = 0
 930              		@ frame_needed = 0, uses_anonymous_args = 0
 931              	.LVL69:
 932 0000 70B5     		push	{r4, r5, r6, lr}
 933              		.cfi_def_cfa_offset 16
 934              		.cfi_offset 4, -16
 935              		.cfi_offset 5, -12
 936              		.cfi_offset 6, -8
 937              		.cfi_offset 14, -4
 938 0002 0500     		movs	r5, r0
 939 0004 0C00     		movs	r4, r1
 812:Generated_Source\PSoC4/ADC_SAR_SEQ.c ****         int64 uVolts;
 813:Generated_Source\PSoC4/ADC_SAR_SEQ.c **** 
 814:Generated_Source\PSoC4/ADC_SAR_SEQ.c ****         /* Halt CPU in debug mode if channel is out of valid range */
ARM GAS  C:\Users\Keyarash\AppData\Local\Temp\ccWKO81o.s 			page 32


 815:Generated_Source\PSoC4/ADC_SAR_SEQ.c ****         CYASSERT(chan < ADC_SAR_SEQ_TOTAL_CHANNELS_NUM);
 940              		.loc 1 815 0
 941 0006 0128     		cmp	r0, #1
 942 0008 02D9     		bls	.L74
 943              		.loc 1 815 0 is_stmt 0 discriminator 1
 944 000a 0020     		movs	r0, #0
 945              	.LVL70:
 946 000c FFF7FEFF 		bl	CyHalt
 947              	.LVL71:
 948              	.L74:
 816:Generated_Source\PSoC4/ADC_SAR_SEQ.c **** 
 817:Generated_Source\PSoC4/ADC_SAR_SEQ.c ****         /* Divide the adcCount when accumulate averaging mode selected */
 818:Generated_Source\PSoC4/ADC_SAR_SEQ.c ****         #if(ADC_SAR_SEQ_DEFAULT_AVG_MODE == ADC_SAR_SEQ__ACCUMULATE)
 819:Generated_Source\PSoC4/ADC_SAR_SEQ.c ****             if((ADC_SAR_SEQ_channelsConfig[chan] & ADC_SAR_SEQ_AVERAGING_EN) != 0u)
 820:Generated_Source\PSoC4/ADC_SAR_SEQ.c ****             {
 821:Generated_Source\PSoC4/ADC_SAR_SEQ.c ****                 adcCounts /= ADC_SAR_SEQ_DEFAULT_AVG_SAMPLES_DIV;
 822:Generated_Source\PSoC4/ADC_SAR_SEQ.c ****             }
 823:Generated_Source\PSoC4/ADC_SAR_SEQ.c ****         #endif /* ADC_SAR_SEQ_DEFAULT_AVG_MODE == ADC_SAR_SEQ__ACCUMULATE */
 824:Generated_Source\PSoC4/ADC_SAR_SEQ.c **** 
 825:Generated_Source\PSoC4/ADC_SAR_SEQ.c ****         /* Subtract ADC offset */
 826:Generated_Source\PSoC4/ADC_SAR_SEQ.c ****         adcCounts -= ADC_SAR_SEQ_offset[chan];
 949              		.loc 1 826 0 is_stmt 1
 950 0010 6A00     		lsls	r2, r5, #1
 951 0012 084B     		ldr	r3, .L75
 952 0014 D05A     		ldrh	r0, [r2, r3]
 953 0016 00B2     		sxth	r0, r0
 954 0018 201A     		subs	r0, r4, r0
 955 001a 00B2     		sxth	r0, r0
 956              	.LVL72:
 827:Generated_Source\PSoC4/ADC_SAR_SEQ.c **** 
 828:Generated_Source\PSoC4/ADC_SAR_SEQ.c ****         uVolts = ((int64)adcCounts * ADC_SAR_SEQ_10UV_COUNTS) / ADC_SAR_SEQ_countsPer10Volt[chan];
 957              		.loc 1 828 0
 958 001c C117     		asrs	r1, r0, #31
 959 001e 064A     		ldr	r2, .L75+4
 960 0020 0023     		movs	r3, #0
 961 0022 FFF7FEFF 		bl	__aeabi_lmul
 962              	.LVL73:
 963 0026 AD00     		lsls	r5, r5, #2
 964              	.LVL74:
 965 0028 044B     		ldr	r3, .L75+8
 966 002a EA58     		ldr	r2, [r5, r3]
 967 002c D317     		asrs	r3, r2, #31
 968 002e FFF7FEFF 		bl	__aeabi_ldivmod
 969              	.LVL75:
 829:Generated_Source\PSoC4/ADC_SAR_SEQ.c **** 
 830:Generated_Source\PSoC4/ADC_SAR_SEQ.c ****         return( (int32)uVolts );
 831:Generated_Source\PSoC4/ADC_SAR_SEQ.c ****     }
 970              		.loc 1 831 0
 971              		@ sp needed
 972 0032 70BD     		pop	{r4, r5, r6, pc}
 973              	.L76:
 974              		.align	2
 975              	.L75:
 976 0034 00000000 		.word	ADC_SAR_SEQ_offset
 977 0038 80969800 		.word	10000000
 978 003c 00000000 		.word	ADC_SAR_SEQ_countsPer10Volt
 979              		.cfi_endproc
ARM GAS  C:\Users\Keyarash\AppData\Local\Temp\ccWKO81o.s 			page 33


 980              	.LFE16:
 981              		.size	ADC_SAR_SEQ_CountsTo_uVolts, .-ADC_SAR_SEQ_CountsTo_uVolts
 982              		.global	__aeabi_i2f
 983              		.global	__aeabi_fmul
 984              		.global	__aeabi_fdiv
 985              		.section	.text.ADC_SAR_SEQ_CountsTo_Volts,"ax",%progbits
 986              		.align	2
 987              		.global	ADC_SAR_SEQ_CountsTo_Volts
 988              		.code	16
 989              		.thumb_func
 990              		.type	ADC_SAR_SEQ_CountsTo_Volts, %function
 991              	ADC_SAR_SEQ_CountsTo_Volts:
 992              	.LFB17:
 832:Generated_Source\PSoC4/ADC_SAR_SEQ.c **** 
 833:Generated_Source\PSoC4/ADC_SAR_SEQ.c **** 
 834:Generated_Source\PSoC4/ADC_SAR_SEQ.c ****     /*******************************************************************************
 835:Generated_Source\PSoC4/ADC_SAR_SEQ.c ****     * Function Name: ADC_SAR_SEQ_CountsTo_Volts
 836:Generated_Source\PSoC4/ADC_SAR_SEQ.c ****     ********************************************************************************
 837:Generated_Source\PSoC4/ADC_SAR_SEQ.c ****     *
 838:Generated_Source\PSoC4/ADC_SAR_SEQ.c ****     * Summary:
 839:Generated_Source\PSoC4/ADC_SAR_SEQ.c ****     *  Converts the ADC output to Volts as a floating point number.
 840:Generated_Source\PSoC4/ADC_SAR_SEQ.c ****     *  This function is not available when left data format justification selected.
 841:Generated_Source\PSoC4/ADC_SAR_SEQ.c ****     *
 842:Generated_Source\PSoC4/ADC_SAR_SEQ.c ****     * Parameters:
 843:Generated_Source\PSoC4/ADC_SAR_SEQ.c ****     *  chan: The ADC channel number.
 844:Generated_Source\PSoC4/ADC_SAR_SEQ.c ****     *  Result from the ADC conversion
 845:Generated_Source\PSoC4/ADC_SAR_SEQ.c ****     *
 846:Generated_Source\PSoC4/ADC_SAR_SEQ.c ****     * Return:
 847:Generated_Source\PSoC4/ADC_SAR_SEQ.c ****     *  Results in Volts
 848:Generated_Source\PSoC4/ADC_SAR_SEQ.c ****     *
 849:Generated_Source\PSoC4/ADC_SAR_SEQ.c ****     * Global variables:
 850:Generated_Source\PSoC4/ADC_SAR_SEQ.c ****     *  ADC_SAR_SEQ_countsPer10Volt:  used to convert ADC counts to Volts.
 851:Generated_Source\PSoC4/ADC_SAR_SEQ.c ****     *  ADC_SAR_SEQ_Offset:  Used as the offset while converting ADC counts
 852:Generated_Source\PSoC4/ADC_SAR_SEQ.c ****     *   to mVolts.
 853:Generated_Source\PSoC4/ADC_SAR_SEQ.c ****     *
 854:Generated_Source\PSoC4/ADC_SAR_SEQ.c ****     *******************************************************************************/
 855:Generated_Source\PSoC4/ADC_SAR_SEQ.c ****     float32 ADC_SAR_SEQ_CountsTo_Volts(uint32 chan, int16 adcCounts)
 856:Generated_Source\PSoC4/ADC_SAR_SEQ.c ****     {
 993              		.loc 1 856 0
 994              		.cfi_startproc
 995              		@ args = 0, pretend = 0, frame = 0
 996              		@ frame_needed = 0, uses_anonymous_args = 0
 997              	.LVL76:
 998 0000 70B5     		push	{r4, r5, r6, lr}
 999              		.cfi_def_cfa_offset 16
 1000              		.cfi_offset 4, -16
 1001              		.cfi_offset 5, -12
 1002              		.cfi_offset 6, -8
 1003              		.cfi_offset 14, -4
 1004 0002 0400     		movs	r4, r0
 1005 0004 0D00     		movs	r5, r1
 857:Generated_Source\PSoC4/ADC_SAR_SEQ.c ****         float32 volts;
 858:Generated_Source\PSoC4/ADC_SAR_SEQ.c **** 
 859:Generated_Source\PSoC4/ADC_SAR_SEQ.c ****         /* Halt CPU in debug mode if channel is out of valid range */
 860:Generated_Source\PSoC4/ADC_SAR_SEQ.c ****         CYASSERT(chan < ADC_SAR_SEQ_TOTAL_CHANNELS_NUM);
 1006              		.loc 1 860 0
 1007 0006 0128     		cmp	r0, #1
ARM GAS  C:\Users\Keyarash\AppData\Local\Temp\ccWKO81o.s 			page 34


 1008 0008 02D9     		bls	.L78
 1009              		.loc 1 860 0 is_stmt 0 discriminator 1
 1010 000a 0020     		movs	r0, #0
 1011              	.LVL77:
 1012 000c FFF7FEFF 		bl	CyHalt
 1013              	.LVL78:
 1014              	.L78:
 861:Generated_Source\PSoC4/ADC_SAR_SEQ.c **** 
 862:Generated_Source\PSoC4/ADC_SAR_SEQ.c ****         /* Divide the adcCount when accumulate averaging mode selected */
 863:Generated_Source\PSoC4/ADC_SAR_SEQ.c ****         #if(ADC_SAR_SEQ_DEFAULT_AVG_MODE == ADC_SAR_SEQ__ACCUMULATE)
 864:Generated_Source\PSoC4/ADC_SAR_SEQ.c ****             if((ADC_SAR_SEQ_channelsConfig[chan] & ADC_SAR_SEQ_AVERAGING_EN) != 0u)
 865:Generated_Source\PSoC4/ADC_SAR_SEQ.c ****             {
 866:Generated_Source\PSoC4/ADC_SAR_SEQ.c ****                 adcCounts /= ADC_SAR_SEQ_DEFAULT_AVG_SAMPLES_DIV;
 867:Generated_Source\PSoC4/ADC_SAR_SEQ.c ****             }
 868:Generated_Source\PSoC4/ADC_SAR_SEQ.c ****         #endif /* ADC_SAR_SEQ_DEFAULT_AVG_MODE == ADC_SAR_SEQ__ACCUMULATE */
 869:Generated_Source\PSoC4/ADC_SAR_SEQ.c **** 
 870:Generated_Source\PSoC4/ADC_SAR_SEQ.c ****         /* Subtract ADC offset */
 871:Generated_Source\PSoC4/ADC_SAR_SEQ.c ****         adcCounts -= ADC_SAR_SEQ_offset[chan];
 1015              		.loc 1 871 0 is_stmt 1
 1016 0010 6200     		lsls	r2, r4, #1
 1017 0012 0A4B     		ldr	r3, .L79
 1018 0014 D05A     		ldrh	r0, [r2, r3]
 1019 0016 00B2     		sxth	r0, r0
 1020 0018 281A     		subs	r0, r5, r0
 1021 001a 00B2     		sxth	r0, r0
 1022              	.LVL79:
 872:Generated_Source\PSoC4/ADC_SAR_SEQ.c **** 
 873:Generated_Source\PSoC4/ADC_SAR_SEQ.c ****         volts = ((float32)adcCounts * ADC_SAR_SEQ_10V_COUNTS) / (float32)ADC_SAR_SEQ_countsPer10Vol
 1023              		.loc 1 873 0
 1024 001c FFF7FEFF 		bl	__aeabi_i2f
 1025              	.LVL80:
 1026 0020 0749     		ldr	r1, .L79+4
 1027 0022 FFF7FEFF 		bl	__aeabi_fmul
 1028              	.LVL81:
 1029 0026 051C     		adds	r5, r0, #0
 1030 0028 A400     		lsls	r4, r4, #2
 1031              	.LVL82:
 1032 002a 064B     		ldr	r3, .L79+8
 1033 002c E058     		ldr	r0, [r4, r3]
 1034 002e FFF7FEFF 		bl	__aeabi_i2f
 1035              	.LVL83:
 1036 0032 011C     		adds	r1, r0, #0
 1037 0034 281C     		adds	r0, r5, #0
 1038 0036 FFF7FEFF 		bl	__aeabi_fdiv
 1039              	.LVL84:
 874:Generated_Source\PSoC4/ADC_SAR_SEQ.c **** 
 875:Generated_Source\PSoC4/ADC_SAR_SEQ.c ****         return( volts );
 876:Generated_Source\PSoC4/ADC_SAR_SEQ.c ****     }
 1040              		.loc 1 876 0
 1041              		@ sp needed
 1042 003a 70BD     		pop	{r4, r5, r6, pc}
 1043              	.L80:
 1044              		.align	2
 1045              	.L79:
 1046 003c 00000000 		.word	ADC_SAR_SEQ_offset
 1047 0040 00002041 		.word	1092616192
 1048 0044 00000000 		.word	ADC_SAR_SEQ_countsPer10Volt
ARM GAS  C:\Users\Keyarash\AppData\Local\Temp\ccWKO81o.s 			page 35


 1049              		.cfi_endproc
 1050              	.LFE17:
 1051              		.size	ADC_SAR_SEQ_CountsTo_Volts, .-ADC_SAR_SEQ_CountsTo_Volts
 1052              		.comm	ADC_SAR_SEQ_countsPer10Volt,8,4
 1053              		.comm	ADC_SAR_SEQ_offset,4,4
 1054              		.global	ADC_SAR_SEQ_initVar
 1055              		.section	.rodata
 1056              		.align	2
 1057              		.set	.LANCHOR0,. + 0
 1058              		.type	ADC_SAR_SEQ_channelsConfig, %object
 1059              		.size	ADC_SAR_SEQ_channelsConfig, 8
 1060              	ADC_SAR_SEQ_channelsConfig:
 1061 0000 02040000 		.word	1026
 1062 0004 02040000 		.word	1026
 1063              		.type	ADC_SAR_SEQ_InputsPlacement.4874, %object
 1064              		.size	ADC_SAR_SEQ_InputsPlacement.4874, 2
 1065              	ADC_SAR_SEQ_InputsPlacement.4874:
 1066 0008 72       		.byte	114
 1067 0009 73       		.byte	115
 1068              		.bss
 1069              		.set	.LANCHOR1,. + 0
 1070              		.type	ADC_SAR_SEQ_initVar, %object
 1071              		.size	ADC_SAR_SEQ_initVar, 1
 1072              	ADC_SAR_SEQ_initVar:
 1073 0000 00       		.space	1
 1074              		.text
 1075              	.Letext0:
 1076              		.file 2 "Generated_Source\\PSoC4\\cytypes.h"
 1077              		.file 3 "Generated_Source\\PSoC4\\CyLib.h"