ARM GAS  C:\Users\Keyarash\AppData\Local\Temp\cc1Nb0b0.s 			page 1


   1              		.syntax unified
   2              		.cpu cortex-m0
   3              		.fpu softvfp
   4              		.eabi_attribute 20, 1
   5              		.eabi_attribute 21, 1
   6              		.eabi_attribute 23, 3
   7              		.eabi_attribute 24, 1
   8              		.eabi_attribute 25, 1
   9              		.eabi_attribute 26, 1
  10              		.eabi_attribute 30, 1
  11              		.eabi_attribute 34, 0
  12              		.eabi_attribute 18, 4
  13              		.thumb
  14              		.syntax unified
  15              		.file	"main.c"
  16              		.text
  17              	.Ltext0:
  18              		.cfi_sections	.debug_frame
  19              		.section	.text.ADC_SAR_SEQ_ISR_LOC,"ax",%progbits
  20              		.align	2
  21              		.global	ADC_SAR_SEQ_ISR_LOC
  22              		.code	16
  23              		.thumb_func
  24              		.type	ADC_SAR_SEQ_ISR_LOC, %function
  25              	ADC_SAR_SEQ_ISR_LOC:
  26              	.LFB40:
  27              		.file 1 "main.c"
   1:main.c        **** /******************************************************************************
   2:main.c        **** * File Name: main.c
   3:main.c        **** *
   4:main.c        **** * Version 1.30
   5:main.c        **** *
   6:main.c        **** * Description: 
   7:main.c        **** *  This code example demonstrates basic usage of PSoC 4 Serial Communication 
   8:main.c        **** *  Block (SCB) Component in I2C Master mode. This project implements the 
   9:main.c        **** *  I2C Master device, which sends commands to I2C Slave device and reads 
  10:main.c        **** *  status of the command execution: success or error. Result or command 
  11:main.c        **** *  execution shown using RGB LED: green for success and red for error.
  12:main.c        **** *
  13:main.c        **** * Related Document: 
  14:main.c        **** *  CE222306_PSoC4_I2C_SCB.pdf
  15:main.c        **** *
  16:main.c        **** * Hardware Dependency: 
  17:main.c        **** *  See CE222306_PSoC4_I2C_SCB.pdf
  18:main.c        **** *
  19:main.c        **** *******************************************************************************
  20:main.c        **** * Copyright (2018), Cypress Semiconductor Corporation. All rights reserved.
  21:main.c        **** *******************************************************************************
  22:main.c        **** * This software, including source code, documentation and related materials
  23:main.c        **** * ("Software"), is owned by Cypress Semiconductor Corporation or one of its
  24:main.c        **** * subsidiaries ("Cypress") and is protected by and subject to worldwide patent
  25:main.c        **** * protection (United States and foreign), United States copyright laws and
  26:main.c        **** * international treaty provisions. Therefore, you may use this Software only
  27:main.c        **** * as provided in the license agreement accompanying the software package from
  28:main.c        **** * which you obtained this Software ("EULA").
  29:main.c        **** *
  30:main.c        **** * If no EULA applies, Cypress hereby grants you a personal, non-exclusive,
ARM GAS  C:\Users\Keyarash\AppData\Local\Temp\cc1Nb0b0.s 			page 2


  31:main.c        **** * non-transferable license to copy, modify, and compile the Software source
  32:main.c        **** * code solely for use in connection with Cypress’s integrated circuit products.
  33:main.c        **** * Any reproduction, modification, translation, compilation, or representation
  34:main.c        **** * of this Software except as specified above is prohibited without the express
  35:main.c        **** * written permission of Cypress.
  36:main.c        **** *
  37:main.c        **** * Disclaimer: THIS SOFTWARE IS PROVIDED AS-IS, WITH NO WARRANTY OF ANY KIND, 
  38:main.c        **** * EXPRESS OR IMPLIED, INCLUDING, BUT NOT LIMITED TO, NONINFRINGEMENT, IMPLIED 
  39:main.c        **** * WARRANTIES OF MERCHANTABILITY AND FITNESS FOR A PARTICULAR PURPOSE. Cypress 
  40:main.c        **** * reserves the right to make changes to the Software without notice. Cypress 
  41:main.c        **** * does not assume any liability arising out of the application or use of the 
  42:main.c        **** * Software or any product or circuit described in the Software. Cypress does 
  43:main.c        **** * not authorize its products for use in any products where a malfunction or 
  44:main.c        **** * failure of the Cypress product may reasonably be expected to result in 
  45:main.c        **** * significant property damage, injury or death ("High Risk Product"). By 
  46:main.c        **** * including Cypress’s product in a High Risk Product, the manufacturer of such 
  47:main.c        **** * system or application assumes all risk of such use and in doing so agrees to 
  48:main.c        **** * indemnify Cypress against all liability. 
  49:main.c        **** *******************************************************************************/
  50:main.c        **** 
  51:main.c        **** #include "main.h"
  52:main.c        **** #include "stdio.h"
  53:main.c        **** #include <project.h>
  54:main.c        **** 
  55:main.c        **** #include <ADC_SAR_SEQ.h>
  56:main.c        **** 
  57:main.c        **** #define TIMER_CLK_FREQ 1000
  58:main.c        **** 
  59:main.c        **** 
  60:main.c        **** #define CH0_N               (0x00u)
  61:main.c        **** #define CH1_N               (0x01u)
  62:main.c        **** #define TEMP_CH             (0x01u)
  63:main.c        **** #define DELAY_1SEC          (1000u)
  64:main.c        **** 
  65:main.c        **** /* Get actual Vref. value from ADC SAR sequencer */
  66:main.c        **** //#define ADC_VREF_VALUE_V    ((float)ADC_SAR_SEQ_DEFAULT_VREF_MV_VALUE/1000.0)
  67:main.c        **** 
  68:main.c        **** volatile uint32 dataReady = 0u;
  69:main.c        **** volatile int16 result[ADC_SAR_SEQ_TOTAL_CHANNELS_NUM];
  70:main.c        **** volatile uint32 timer_delay = 0u;
  71:main.c        **** 
  72:main.c        **** 
  73:main.c        **** /*******************************************************************************
  74:main.c        **** * Function Name: WriteCommandPacket
  75:main.c        **** ********************************************************************************
  76:main.c        **** * 
  77:main.c        **** * Summary:
  78:main.c        **** *  Master initiates the transfer to write command packet into the slave.
  79:main.c        **** *  The status of the transfer is returned.
  80:main.c        **** *
  81:main.c        **** * Parameters:
  82:main.c        **** *  cmd: command to execute. Supported commands:
  83:main.c        **** *   - CMD_SET_RED:   set red color of the LED.
  84:main.c        **** *   - CMD_SET_GREEN: set green color of the LED.
  85:main.c        **** *   - CMD_SET_BLUE:  set blue color of the LED.
  86:main.c        **** *   - CMD_SET_OFF:   turn off the LED.
  87:main.c        **** *
ARM GAS  C:\Users\Keyarash\AppData\Local\Temp\cc1Nb0b0.s 			page 3


  88:main.c        **** * Return:
  89:main.c        **** *  Status of the data transfer. There are two statuses
  90:main.c        **** *  - TRANSFER_CMPLT: transfer completed successfully.
  91:main.c        **** *  - TRANSFER_ERROR: the error occurred while transfer.
  92:main.c        **** *
  93:main.c        **** *******************************************************************************/
  94:main.c        **** /* global definitions */ 
  95:main.c        **** 
  96:main.c        **** 
  97:main.c        **** 
  98:main.c        **** 
  99:main.c        **** void UART_printFormat(int temp , int humid){
 100:main.c        ****     char a [50]; 
 101:main.c        ****     sprintf( a, "Temperature: %d, Humidity: %d\n", temp, humid); 
 102:main.c        ****     UART_UartPutString(a);
 103:main.c        **** }
 104:main.c        **** uint32 WriteCommandPacket(uint8 cmd)
 105:main.c        **** {
 106:main.c        ****     uint8  buffer[BUFFER_SIZE]; 
 107:main.c        ****     uint32 status = TRANSFER_ERROR;
 108:main.c        ****     buffer[BUFFER_SIZE-1] = cmd; 
 109:main.c        ****     /* Initialize buffer with packet */
 110:main.c        ****    
 111:main.c        **** 
 112:main.c        ****     (void) I2CM_I2CMasterClearStatus();
 113:main.c        ****     
 114:main.c        ****     /* Start I2C write and check status*/
 115:main.c        ****     if(I2CM_I2C_MSTR_NO_ERROR == I2CM_I2CMasterWriteBuf(I2C_SLAVE_ADDR,
 116:main.c        ****                                     buffer, PACKET_SIZE,
 117:main.c        ****                                     I2CM_I2C_MODE_COMPLETE_XFER))
 118:main.c        ****     {
 119:main.c        ****          
 120:main.c        ****         /*If I2C write started without errors, 
 121:main.c        ****         / wait until I2C Master completes write transfer 
 122:main.c        ****         */
 123:main.c        ****         while (0u == (I2CM_I2CMasterStatus() & I2CM_I2C_MSTAT_WR_CMPLT))
 124:main.c        ****         {
 125:main.c        ****             /* Wait */
 126:main.c        ****         }
 127:main.c        ****         
 128:main.c        ****         /* Display transfer status */
 129:main.c        ****         if (0u == (I2CM_I2CMasterStatus() & I2CM_I2C_MSTAT_ERR_XFER))
 130:main.c        ****         {
 131:main.c        ****             /* Check if all bytes was written */
 132:main.c        ****             if (I2CM_I2CMasterGetWriteBufSize() == BUFFER_SIZE)
 133:main.c        ****             {
 134:main.c        ****                 status = TRANSFER_CMPLT;
 135:main.c        ****             }
 136:main.c        ****         }
 137:main.c        ****     }
 138:main.c        **** 
 139:main.c        ****     return (status);
 140:main.c        **** }
 141:main.c        **** 
 142:main.c        **** /*******************************************************************************
 143:main.c        **** * Function Name: ReadStatusPacket
 144:main.c        **** ********************************************************************************
ARM GAS  C:\Users\Keyarash\AppData\Local\Temp\cc1Nb0b0.s 			page 4


 145:main.c        **** * 
 146:main.c        **** * Summary:
 147:main.c        **** *  Master initiates the transfer to read status packet from the Slave.
 148:main.c        **** *  The status of the transfer is returned.
 149:main.c        **** *
 150:main.c        **** * Parameters:
 151:main.c        **** *  None
 152:main.c        **** *
 153:main.c        **** * Return:
 154:main.c        **** *  Status of the transfer. There are two statuses
 155:main.c        **** *  - TRANSFER_CMPLT: transfer completed successfully.
 156:main.c        **** *  - TRANSFER_ERROR: the error occurred while transfer.
 157:main.c        **** *
 158:main.c        **** *******************************************************************************/
 159:main.c        **** uint32 readSensor(uint8 cmd)
 160:main.c        **** {
 161:main.c        ****     WriteCommandPacket(cmd); 
 162:main.c        ****     
 163:main.c        ****     uint8  buffer[RECEIVE_BUFFER_SIZE];
 164:main.c        ****     //uint32 status = TRANSFER_ERROR;
 165:main.c        ****     uint32 value = 0 ; 
 166:main.c        ****     
 167:main.c        ****     (void) I2CM_I2CMasterClearStatus();
 168:main.c        ****     
 169:main.c        ****     if(I2CM_I2C_MSTR_NO_ERROR ==  I2CM_I2CMasterReadBuf(I2C_SLAVE_ADDR,
 170:main.c        ****                                     buffer, RECEIVE_PACKET_SIZE,
 171:main.c        ****                                     I2CM_I2C_MODE_COMPLETE_XFER))
 172:main.c        ****     {
 173:main.c        ****         /* If I2C read started without errors, 
 174:main.c        ****         / wait until master complete read transfer */
 175:main.c        ****         while (0u == (I2CM_I2CMasterStatus() & I2CM_I2C_MSTAT_RD_CMPLT))
 176:main.c        ****         {
 177:main.c        ****             /* Wait */
 178:main.c        ****         }
 179:main.c        ****         
 180:main.c        ****         /* Display transfer status */
 181:main.c        ****         //if (0u == (I2CM_I2C_MSTAT_ERR_XFER & I2CM_I2CMasterStatus()))
 182:main.c        ****         //{     
 183:main.c        ****         //    }
 184:main.c        ****             
 185:main.c        ****                 value = buffer[0] << 8; 
 186:main.c        ****                 value += buffer[1]; 
 187:main.c        ****                 value &= ~0x0003; 
 188:main.c        ****               
 189:main.c        ****         }
 190:main.c        ****    
 191:main.c        **** 
 192:main.c        ****     return (value);
 193:main.c        **** }
 194:main.c        **** 
 195:main.c        **** float getTemperature(){
 196:main.c        ****     return (-46.85 + 175.72 / 65536.0 * (float)(readSensor(eTempHoldCmd)));    
 197:main.c        **** }
 198:main.c        **** 
 199:main.c        **** float getHumidity(){
 200:main.c        ****     return (-6.0 + 125.0 / 65536.0 * (float)(readSensor(eRHumidityCmd))); 
 201:main.c        **** }
ARM GAS  C:\Users\Keyarash\AppData\Local\Temp\cc1Nb0b0.s 			page 5


 202:main.c        **** 
 203:main.c        **** void runTempHumidModule(){
 204:main.c        ****         uint32 humid = 0 ; 
 205:main.c        ****         uint32 temperature = 0; 
 206:main.c        ****         humid = getHumidity();
 207:main.c        ****         temperature = getTemperature(); 
 208:main.c        ****         
 209:main.c        ****         UART_printFormat(temperature , humid); 
 210:main.c        **** }
 211:main.c        **** 
 212:main.c        **** 
 213:main.c        **** 
 214:main.c        **** /************************************************************
 215:main.c        **** *function Block: Timer Counter related
 216:main.c        **** *************************************************************/
 217:main.c        **** //void printRPM(int input){
 218:main.c        ****     //char a [50]; 
 219:main.c        ****     //sprintf(a , "rpm: %d\n", input); 
 220:main.c        ****     //UART_UartPutString(a); 
 221:main.c        **** //}
 222:main.c        **** 
 223:main.c        **** /*CY_ISR(Ctr_Function)
 224:main.c        **** {
 225:main.c        ****     uint32 counter ;
 226:main.c        ****     float data = 0 ; 
 227:main.c        ****     counter = Timer_ReadCounter();  // Read counter value
 228:main.c        ****     Timer_WriteCounter(0u);         // Reset counter to zero
 229:main.c        ****     InputPin_ClearInterrupt();
 230:main.c        ****     
 231:main.c        ****     data = counter;    // fill array  with values
 232:main.c        ****     //printRPM(counter); 
 233:main.c        ****     data = data * 0.001; 
 234:main.c        ****     if(data != 0)
 235:main.c        ****         data = 1 / data; 
 236:main.c        ****     //find rpm (three propellors) 
 237:main.c        ****     data = data * 60 / 3; 
 238:main.c        ****     if (data < MAX_TURBINE_RPM && data >= 0) 
 239:main.c        ****         printRPM(data); 
 240:main.c        **** }*/
 241:main.c        **** 
 242:main.c        **** /** period function to reduce the communication rate of sensors */ 
 243:main.c        **** CY_ISR(Period_function)
 244:main.c        **** {
 245:main.c        ****     TimerHumidityTemp_ClearInterrupt(Timer_INTR_MASK_TC);
 246:main.c        ****     //printRPM(1000);
 247:main.c        ****     //runTempHumidModule(); 
 248:main.c        **** }
 249:main.c        **** 
 250:main.c        **** 
 251:main.c        **** CY_ISR(ADC_SAR_SEQ_ISR_LOC)
 252:main.c        **** {
  28              		.loc 1 252 0
  29              		.cfi_startproc
  30              		@ args = 0, pretend = 0, frame = 0
  31              		@ frame_needed = 0, uses_anonymous_args = 0
  32 0000 70B5     		push	{r4, r5, r6, lr}
  33              		.cfi_def_cfa_offset 16
ARM GAS  C:\Users\Keyarash\AppData\Local\Temp\cc1Nb0b0.s 			page 6


  34              		.cfi_offset 4, -16
  35              		.cfi_offset 5, -12
  36              		.cfi_offset 6, -8
  37              		.cfi_offset 14, -4
 253:main.c        ****     uint32 intr_status;
 254:main.c        ****     uint32 range_status;
 255:main.c        **** 
 256:main.c        ****     /* Read interrupt status registers */
 257:main.c        ****     intr_status = ADC_SAR_SEQ_SAR_INTR_MASKED_REG;
  38              		.loc 1 257 0
  39 0002 0F4B     		ldr	r3, .L5
  40 0004 1C68     		ldr	r4, [r3]
  41              	.LVL0:
 258:main.c        ****     /* Check for End of Scan interrupt */
 259:main.c        ****     if((intr_status & ADC_SAR_SEQ_EOS_MASK) != 0u)
  42              		.loc 1 259 0
  43 0006 E307     		lsls	r3, r4, #31
  44 0008 16D5     		bpl	.L2
 260:main.c        ****     {
 261:main.c        ****         /* Read range detect status */
 262:main.c        ****         range_status = ADC_SAR_SEQ_SAR_RANGE_INTR_MASKED_REG;
  45              		.loc 1 262 0
  46 000a 0E4B     		ldr	r3, .L5+4
  47 000c 1D68     		ldr	r5, [r3]
  48              	.LVL1:
 263:main.c        ****         /* Verify that the conversion result met the condition Low_Limit <= Result < High_Limit  */
 264:main.c        ****         if((range_status & (uint32)(1ul << CH0_N)) != 0u) 
  49              		.loc 1 264 0
  50 000e EB07     		lsls	r3, r5, #31
  51 0010 04D5     		bpl	.L3
 265:main.c        ****         {
 266:main.c        ****             /* Read conversion result */
 267:main.c        ****             result[CH0_N] = ADC_SAR_SEQ_GetResult16(CH0_N);
  52              		.loc 1 267 0
  53 0012 0020     		movs	r0, #0
  54 0014 FFF7FEFF 		bl	ADC_SAR_SEQ_GetResult16
  55              	.LVL2:
  56 0018 0B4B     		ldr	r3, .L5+8
  57 001a 1880     		strh	r0, [r3]
  58              	.L3:
 268:main.c        ****         }    
 269:main.c        ****         
 270:main.c        ****         if((range_status & (uint32)(1ul << CH1_N)) != 0u) 
  59              		.loc 1 270 0
  60 001c AB07     		lsls	r3, r5, #30
  61 001e 04D5     		bpl	.L4
 271:main.c        ****         {
 272:main.c        ****             /* Read conversion result */
 273:main.c        ****             result[CH1_N] = ADC_SAR_SEQ_GetResult16(CH1_N);
  62              		.loc 1 273 0
  63 0020 0120     		movs	r0, #1
  64 0022 FFF7FEFF 		bl	ADC_SAR_SEQ_GetResult16
  65              	.LVL3:
  66 0026 084B     		ldr	r3, .L5+8
  67 0028 5880     		strh	r0, [r3, #2]
  68              	.L4:
 274:main.c        ****         }    
ARM GAS  C:\Users\Keyarash\AppData\Local\Temp\cc1Nb0b0.s 			page 7


 275:main.c        **** 
 276:main.c        ****         /* Clear range detect status */
 277:main.c        ****         ADC_SAR_SEQ_SAR_RANGE_INTR_REG = range_status;
  69              		.loc 1 277 0
  70 002a 084B     		ldr	r3, .L5+12
  71 002c 1D60     		str	r5, [r3]
 278:main.c        ****         dataReady |= ADC_SAR_SEQ_EOS_MASK;
  72              		.loc 1 278 0
  73 002e 084A     		ldr	r2, .L5+16
  74 0030 1168     		ldr	r1, [r2]
  75 0032 0123     		movs	r3, #1
  76 0034 0B43     		orrs	r3, r1
  77 0036 1360     		str	r3, [r2]
  78              	.LVL4:
  79              	.L2:
 279:main.c        ****     }    
 280:main.c        **** 
 281:main.c        ****    
 282:main.c        **** 
 283:main.c        ****     /* Clear handled interrupt */
 284:main.c        ****     ADC_SAR_SEQ_SAR_INTR_REG = intr_status;
  80              		.loc 1 284 0
  81 0038 064B     		ldr	r3, .L5+20
  82 003a 1C60     		str	r4, [r3]
 285:main.c        **** }
  83              		.loc 1 285 0
  84              		@ sp needed
  85              	.LVL5:
  86 003c 70BD     		pop	{r4, r5, r6, pc}
  87              	.L6:
  88 003e C046     		.align	2
  89              	.L5:
  90 0040 1C021A40 		.word	1075446300
  91 0044 3C021A40 		.word	1075446332
  92 0048 00000000 		.word	result
  93 004c 30021A40 		.word	1075446320
  94 0050 00000000 		.word	.LANCHOR0
  95 0054 10021A40 		.word	1075446288
  96              		.cfi_endproc
  97              	.LFE40:
  98              		.size	ADC_SAR_SEQ_ISR_LOC, .-ADC_SAR_SEQ_ISR_LOC
  99              		.section	.text.UART_printFormat,"ax",%progbits
 100              		.align	2
 101              		.global	UART_printFormat
 102              		.code	16
 103              		.thumb_func
 104              		.type	UART_printFormat, %function
 105              	UART_printFormat:
 106              	.LFB33:
  99:main.c        ****     char a [50]; 
 107              		.loc 1 99 0
 108              		.cfi_startproc
 109              		@ args = 0, pretend = 0, frame = 56
 110              		@ frame_needed = 0, uses_anonymous_args = 0
 111              	.LVL6:
 112 0000 00B5     		push	{lr}
 113              		.cfi_def_cfa_offset 4
ARM GAS  C:\Users\Keyarash\AppData\Local\Temp\cc1Nb0b0.s 			page 8


 114              		.cfi_offset 14, -4
 115 0002 8FB0     		sub	sp, sp, #60
 116              		.cfi_def_cfa_offset 64
 117 0004 0200     		movs	r2, r0
 118 0006 0B00     		movs	r3, r1
 101:main.c        ****     UART_UartPutString(a);
 119              		.loc 1 101 0
 120 0008 0449     		ldr	r1, .L8
 121              	.LVL7:
 122 000a 01A8     		add	r0, sp, #4
 123              	.LVL8:
 124 000c FFF7FEFF 		bl	sprintf
 125              	.LVL9:
 102:main.c        **** }
 126              		.loc 1 102 0
 127 0010 01A8     		add	r0, sp, #4
 128 0012 FFF7FEFF 		bl	UART_UartPutString
 129              	.LVL10:
 103:main.c        **** uint32 WriteCommandPacket(uint8 cmd)
 130              		.loc 1 103 0
 131 0016 0FB0     		add	sp, sp, #60
 132              		@ sp needed
 133 0018 00BD     		pop	{pc}
 134              	.L9:
 135 001a C046     		.align	2
 136              	.L8:
 137 001c 00000000 		.word	.LC2
 138              		.cfi_endproc
 139              	.LFE33:
 140              		.size	UART_printFormat, .-UART_printFormat
 141              		.section	.text.WriteCommandPacket,"ax",%progbits
 142              		.align	2
 143              		.global	WriteCommandPacket
 144              		.code	16
 145              		.thumb_func
 146              		.type	WriteCommandPacket, %function
 147              	WriteCommandPacket:
 148              	.LFB34:
 105:main.c        ****     uint8  buffer[BUFFER_SIZE]; 
 149              		.loc 1 105 0
 150              		.cfi_startproc
 151              		@ args = 0, pretend = 0, frame = 8
 152              		@ frame_needed = 0, uses_anonymous_args = 0
 153              	.LVL11:
 154 0000 10B5     		push	{r4, lr}
 155              		.cfi_def_cfa_offset 8
 156              		.cfi_offset 4, -8
 157              		.cfi_offset 14, -4
 158 0002 82B0     		sub	sp, sp, #8
 159              		.cfi_def_cfa_offset 16
 160              	.LVL12:
 108:main.c        ****     /* Initialize buffer with packet */
 161              		.loc 1 108 0
 162 0004 01AC     		add	r4, sp, #4
 163 0006 2070     		strb	r0, [r4]
 112:main.c        ****     
 164              		.loc 1 112 0
ARM GAS  C:\Users\Keyarash\AppData\Local\Temp\cc1Nb0b0.s 			page 9


 165 0008 FFF7FEFF 		bl	I2CM_I2CMasterClearStatus
 166              	.LVL13:
 115:main.c        ****                                     buffer, PACKET_SIZE,
 167              		.loc 1 115 0
 168 000c 0023     		movs	r3, #0
 169 000e 0122     		movs	r2, #1
 170 0010 2100     		movs	r1, r4
 171 0012 4020     		movs	r0, #64
 172 0014 FFF7FEFF 		bl	I2CM_I2CMasterWriteBuf
 173              	.LVL14:
 174 0018 0028     		cmp	r0, #0
 175 001a 0DD1     		bne	.L13
 176              	.L12:
 123:main.c        ****         {
 177              		.loc 1 123 0 discriminator 1
 178 001c FFF7FEFF 		bl	I2CM_I2CMasterStatus
 179              	.LVL15:
 180 0020 8307     		lsls	r3, r0, #30
 181 0022 FBD5     		bpl	.L12
 129:main.c        ****         {
 182              		.loc 1 129 0
 183 0024 FFF7FEFF 		bl	I2CM_I2CMasterStatus
 184              	.LVL16:
 185 0028 8305     		lsls	r3, r0, #22
 186 002a 07D4     		bmi	.L14
 132:main.c        ****             {
 187              		.loc 1 132 0
 188 002c FFF7FEFF 		bl	I2CM_I2CMasterGetWriteBufSize
 189              	.LVL17:
 190 0030 0128     		cmp	r0, #1
 191 0032 05D0     		beq	.L15
 107:main.c        ****     buffer[BUFFER_SIZE-1] = cmd; 
 192              		.loc 1 107 0
 193 0034 FF20     		movs	r0, #255
 194 0036 04E0     		b	.L11
 195              	.L13:
 196 0038 FF20     		movs	r0, #255
 197 003a 02E0     		b	.L11
 198              	.L14:
 199 003c FF20     		movs	r0, #255
 200 003e 00E0     		b	.L11
 201              	.L15:
 134:main.c        ****             }
 202              		.loc 1 134 0
 203 0040 0020     		movs	r0, #0
 204              	.L11:
 205              	.LVL18:
 140:main.c        **** 
 206              		.loc 1 140 0
 207 0042 02B0     		add	sp, sp, #8
 208              		@ sp needed
 209 0044 10BD     		pop	{r4, pc}
 210              		.cfi_endproc
 211              	.LFE34:
 212              		.size	WriteCommandPacket, .-WriteCommandPacket
 213 0046 C046     		.section	.text.readSensor,"ax",%progbits
 214              		.align	2
ARM GAS  C:\Users\Keyarash\AppData\Local\Temp\cc1Nb0b0.s 			page 10


 215              		.global	readSensor
 216              		.code	16
 217              		.thumb_func
 218              		.type	readSensor, %function
 219              	readSensor:
 220              	.LFB35:
 160:main.c        ****     WriteCommandPacket(cmd); 
 221              		.loc 1 160 0
 222              		.cfi_startproc
 223              		@ args = 0, pretend = 0, frame = 8
 224              		@ frame_needed = 0, uses_anonymous_args = 0
 225              	.LVL19:
 226 0000 00B5     		push	{lr}
 227              		.cfi_def_cfa_offset 4
 228              		.cfi_offset 14, -4
 229 0002 83B0     		sub	sp, sp, #12
 230              		.cfi_def_cfa_offset 16
 161:main.c        ****     
 231              		.loc 1 161 0
 232 0004 FFF7FEFF 		bl	WriteCommandPacket
 233              	.LVL20:
 167:main.c        ****     
 234              		.loc 1 167 0
 235 0008 FFF7FEFF 		bl	I2CM_I2CMasterClearStatus
 236              	.LVL21:
 169:main.c        ****                                     buffer, RECEIVE_PACKET_SIZE,
 237              		.loc 1 169 0
 238 000c 0023     		movs	r3, #0
 239 000e 0322     		movs	r2, #3
 240 0010 01A9     		add	r1, sp, #4
 241 0012 4020     		movs	r0, #64
 242 0014 FFF7FEFF 		bl	I2CM_I2CMasterReadBuf
 243              	.LVL22:
 244 0018 0028     		cmp	r0, #0
 245 001a 0BD1     		bne	.L19
 246              	.L18:
 175:main.c        ****         {
 247              		.loc 1 175 0 discriminator 1
 248 001c FFF7FEFF 		bl	I2CM_I2CMasterStatus
 249              	.LVL23:
 250 0020 C307     		lsls	r3, r0, #31
 251 0022 FBD5     		bpl	.L18
 185:main.c        ****                 value += buffer[1]; 
 252              		.loc 1 185 0
 253 0024 01AB     		add	r3, sp, #4
 254 0026 1878     		ldrb	r0, [r3]
 255 0028 0002     		lsls	r0, r0, #8
 256              	.LVL24:
 186:main.c        ****                 value &= ~0x0003; 
 257              		.loc 1 186 0
 258 002a 5B78     		ldrb	r3, [r3, #1]
 259 002c 1818     		adds	r0, r3, r0
 260              	.LVL25:
 187:main.c        ****               
 261              		.loc 1 187 0
 262 002e 0323     		movs	r3, #3
 263 0030 9843     		bics	r0, r3
ARM GAS  C:\Users\Keyarash\AppData\Local\Temp\cc1Nb0b0.s 			page 11


 264              	.LVL26:
 265 0032 00E0     		b	.L17
 266              	.LVL27:
 267              	.L19:
 165:main.c        ****     
 268              		.loc 1 165 0
 269 0034 0020     		movs	r0, #0
 270              	.LVL28:
 271              	.L17:
 193:main.c        **** 
 272              		.loc 1 193 0
 273 0036 03B0     		add	sp, sp, #12
 274              		@ sp needed
 275 0038 00BD     		pop	{pc}
 276              		.cfi_endproc
 277              	.LFE35:
 278              		.size	readSensor, .-readSensor
 279              		.global	__aeabi_ui2f
 280              		.global	__aeabi_f2d
 281              		.global	__aeabi_dmul
 282              		.global	__aeabi_dsub
 283              		.global	__aeabi_d2f
 284 003a C046     		.section	.text.getTemperature,"ax",%progbits
 285              		.align	2
 286              		.global	getTemperature
 287              		.code	16
 288              		.thumb_func
 289              		.type	getTemperature, %function
 290              	getTemperature:
 291              	.LFB36:
 195:main.c        ****     return (-46.85 + 175.72 / 65536.0 * (float)(readSensor(eTempHoldCmd)));    
 292              		.loc 1 195 0
 293              		.cfi_startproc
 294              		@ args = 0, pretend = 0, frame = 0
 295              		@ frame_needed = 0, uses_anonymous_args = 0
 296 0000 10B5     		push	{r4, lr}
 297              		.cfi_def_cfa_offset 8
 298              		.cfi_offset 4, -8
 299              		.cfi_offset 14, -4
 196:main.c        **** }
 300              		.loc 1 196 0
 301 0002 E320     		movs	r0, #227
 302 0004 FFF7FEFF 		bl	readSensor
 303              	.LVL29:
 304 0008 FFF7FEFF 		bl	__aeabi_ui2f
 305              	.LVL30:
 306 000c FFF7FEFF 		bl	__aeabi_f2d
 307              	.LVL31:
 308 0010 054A     		ldr	r2, .L21
 309 0012 064B     		ldr	r3, .L21+4
 310 0014 FFF7FEFF 		bl	__aeabi_dmul
 311              	.LVL32:
 312 0018 054A     		ldr	r2, .L21+8
 313 001a 064B     		ldr	r3, .L21+12
 314 001c FFF7FEFF 		bl	__aeabi_dsub
 315              	.LVL33:
 316 0020 FFF7FEFF 		bl	__aeabi_d2f
ARM GAS  C:\Users\Keyarash\AppData\Local\Temp\cc1Nb0b0.s 			page 12


 317              	.LVL34:
 197:main.c        **** 
 318              		.loc 1 197 0
 319              		@ sp needed
 320 0024 10BD     		pop	{r4, pc}
 321              	.L22:
 322 0026 C046     		.align	2
 323              	.L21:
 324 0028 D7A3703D 		.word	1030792151
 325 002c 0AF7653F 		.word	1063646986
 326 0030 CDCCCCCC 		.word	-858993459
 327 0034 CC6C4740 		.word	1078422732
 328              		.cfi_endproc
 329              	.LFE36:
 330              		.size	getTemperature, .-getTemperature
 331              		.section	.text.getHumidity,"ax",%progbits
 332              		.align	2
 333              		.global	getHumidity
 334              		.code	16
 335              		.thumb_func
 336              		.type	getHumidity, %function
 337              	getHumidity:
 338              	.LFB37:
 199:main.c        ****     return (-6.0 + 125.0 / 65536.0 * (float)(readSensor(eRHumidityCmd))); 
 339              		.loc 1 199 0
 340              		.cfi_startproc
 341              		@ args = 0, pretend = 0, frame = 0
 342              		@ frame_needed = 0, uses_anonymous_args = 0
 343 0000 10B5     		push	{r4, lr}
 344              		.cfi_def_cfa_offset 8
 345              		.cfi_offset 4, -8
 346              		.cfi_offset 14, -4
 200:main.c        **** }
 347              		.loc 1 200 0
 348 0002 E520     		movs	r0, #229
 349 0004 FFF7FEFF 		bl	readSensor
 350              	.LVL35:
 351 0008 FFF7FEFF 		bl	__aeabi_ui2f
 352              	.LVL36:
 353 000c FFF7FEFF 		bl	__aeabi_f2d
 354              	.LVL37:
 355 0010 0022     		movs	r2, #0
 356 0012 054B     		ldr	r3, .L24
 357 0014 FFF7FEFF 		bl	__aeabi_dmul
 358              	.LVL38:
 359 0018 0022     		movs	r2, #0
 360 001a 044B     		ldr	r3, .L24+4
 361 001c FFF7FEFF 		bl	__aeabi_dsub
 362              	.LVL39:
 363 0020 FFF7FEFF 		bl	__aeabi_d2f
 364              	.LVL40:
 201:main.c        **** 
 365              		.loc 1 201 0
 366              		@ sp needed
 367 0024 10BD     		pop	{r4, pc}
 368              	.L25:
 369 0026 C046     		.align	2
ARM GAS  C:\Users\Keyarash\AppData\Local\Temp\cc1Nb0b0.s 			page 13


 370              	.L24:
 371 0028 00405F3F 		.word	1063206912
 372 002c 00001840 		.word	1075314688
 373              		.cfi_endproc
 374              	.LFE37:
 375              		.size	getHumidity, .-getHumidity
 376              		.global	__aeabi_f2uiz
 377              		.section	.text.runTempHumidModule,"ax",%progbits
 378              		.align	2
 379              		.global	runTempHumidModule
 380              		.code	16
 381              		.thumb_func
 382              		.type	runTempHumidModule, %function
 383              	runTempHumidModule:
 384              	.LFB38:
 203:main.c        ****         uint32 humid = 0 ; 
 385              		.loc 1 203 0
 386              		.cfi_startproc
 387              		@ args = 0, pretend = 0, frame = 0
 388              		@ frame_needed = 0, uses_anonymous_args = 0
 389 0000 10B5     		push	{r4, lr}
 390              		.cfi_def_cfa_offset 8
 391              		.cfi_offset 4, -8
 392              		.cfi_offset 14, -4
 393              	.LVL41:
 206:main.c        ****         temperature = getTemperature(); 
 394              		.loc 1 206 0
 395 0002 FFF7FEFF 		bl	getHumidity
 396              	.LVL42:
 397 0006 FFF7FEFF 		bl	__aeabi_f2uiz
 398              	.LVL43:
 399 000a 0400     		movs	r4, r0
 400              	.LVL44:
 207:main.c        ****         
 401              		.loc 1 207 0
 402 000c FFF7FEFF 		bl	getTemperature
 403              	.LVL45:
 404 0010 FFF7FEFF 		bl	__aeabi_f2uiz
 405              	.LVL46:
 209:main.c        **** }
 406              		.loc 1 209 0
 407 0014 2100     		movs	r1, r4
 408 0016 FFF7FEFF 		bl	UART_printFormat
 409              	.LVL47:
 210:main.c        **** 
 410              		.loc 1 210 0
 411              		@ sp needed
 412              	.LVL48:
 413 001a 10BD     		pop	{r4, pc}
 414              		.cfi_endproc
 415              	.LFE38:
 416              		.size	runTempHumidModule, .-runTempHumidModule
 417              		.section	.text.Period_function,"ax",%progbits
 418              		.align	2
 419              		.global	Period_function
 420              		.code	16
 421              		.thumb_func
ARM GAS  C:\Users\Keyarash\AppData\Local\Temp\cc1Nb0b0.s 			page 14


 422              		.type	Period_function, %function
 423              	Period_function:
 424              	.LFB39:
 244:main.c        ****     TimerHumidityTemp_ClearInterrupt(Timer_INTR_MASK_TC);
 425              		.loc 1 244 0
 426              		.cfi_startproc
 427              		@ args = 0, pretend = 0, frame = 0
 428              		@ frame_needed = 0, uses_anonymous_args = 0
 429 0000 10B5     		push	{r4, lr}
 430              		.cfi_def_cfa_offset 8
 431              		.cfi_offset 4, -8
 432              		.cfi_offset 14, -4
 245:main.c        ****     //printRPM(1000);
 433              		.loc 1 245 0
 434 0002 0120     		movs	r0, #1
 435 0004 FFF7FEFF 		bl	TimerHumidityTemp_ClearInterrupt
 436              	.LVL49:
 248:main.c        **** 
 437              		.loc 1 248 0
 438              		@ sp needed
 439 0008 10BD     		pop	{r4, pc}
 440              		.cfi_endproc
 441              	.LFE39:
 442              		.size	Period_function, .-Period_function
 443 000a C046     		.section	.text.main,"ax",%progbits
 444              		.align	2
 445              		.global	main
 446              		.code	16
 447              		.thumb_func
 448              		.type	main, %function
 449              	main:
 450              	.LFB41:
 286:main.c        **** 
 287:main.c        **** 
 288:main.c        **** /*******************************************************************************
 289:main.c        **** * Function Name: main
 290:main.c        **** ********************************************************************************
 291:main.c        **** * 
 292:main.c        **** * Summary:
 293:main.c        **** *  This function:
 294:main.c        **** *   1. Turns off the RGB LED.
 295:main.c        **** *   2. Starts the I2C Master Component.
 296:main.c        **** *   3. Enables global interrupts.
 297:main.c        **** *   4. Sends command and reads status packets from the Slave every 500mS.
 298:main.c        **** *
 299:main.c        **** *******************************************************************************/
 300:main.c        **** int main()
 301:main.c        **** {
 451              		.loc 1 301 0
 452              		.cfi_startproc
 453              		@ args = 0, pretend = 0, frame = 256
 454              		@ frame_needed = 0, uses_anonymous_args = 0
 455 0000 70B5     		push	{r4, r5, r6, lr}
 456              		.cfi_def_cfa_offset 16
 457              		.cfi_offset 4, -16
 458              		.cfi_offset 5, -12
 459              		.cfi_offset 6, -8
ARM GAS  C:\Users\Keyarash\AppData\Local\Temp\cc1Nb0b0.s 			page 15


 460              		.cfi_offset 14, -4
 461 0002 C2B0     		sub	sp, sp, #264
 462              		.cfi_def_cfa_offset 280
 302:main.c        ****     CyGlobalIntEnable;
 463              		.loc 1 302 0
 464              		.syntax divided
 465              	@ 302 "main.c" 1
 466 0004 62B6     		CPSIE   i
 467              	@ 0 "" 2
 468              	.LVL50:
 303:main.c        ****     
 304:main.c        ****     float32 angle_y = 0 ; 
 305:main.c        ****     float32 angle_x = 0 ; 
 306:main.c        ****     char  uartLine[250];
 307:main.c        ****     
 308:main.c        ****     /* Start the I2C Master */
 309:main.c        ****     I2CM_Start();
 469              		.loc 1 309 0
 470              		.thumb
 471              		.syntax unified
 472 0006 FFF7FEFF 		bl	I2CM_Start
 473              	.LVL51:
 310:main.c        ****     UART_Start(); 
 474              		.loc 1 310 0
 475 000a FFF7FEFF 		bl	UART_Start
 476              	.LVL52:
 311:main.c        ****     Timer_Start();
 477              		.loc 1 311 0
 478 000e FFF7FEFF 		bl	Timer_Start
 479              	.LVL53:
 312:main.c        ****     //TimerHumidityTemp_Start(); 
 313:main.c        ****     
 314:main.c        ****      /* Init and start sequencing SAR ADC */
 315:main.c        ****     ADC_SAR_SEQ_Start();
 480              		.loc 1 315 0
 481 0012 FFF7FEFF 		bl	ADC_SAR_SEQ_Start
 482              	.LVL54:
 316:main.c        ****     ADC_SAR_SEQ_StartConvert();
 483              		.loc 1 316 0
 484 0016 FFF7FEFF 		bl	ADC_SAR_SEQ_StartConvert
 485              	.LVL55:
 317:main.c        ****     /* Enable interrupt and set interrupt handler to local routine */
 318:main.c        ****     ADC_SAR_SEQ_IRQ_StartEx(ADC_SAR_SEQ_ISR_LOC);
 486              		.loc 1 318 0
 487 001a 1948     		ldr	r0, .L31
 488 001c FFF7FEFF 		bl	ADC_SAR_SEQ_IRQ_StartEx
 489              	.LVL56:
 490              	.L29:
 319:main.c        ****     
 320:main.c        ****     //InputPinIsr_StartEx(Ctr_Function);
 321:main.c        ****     //HumidityTempIsr_StartEx(Period_function); 
 322:main.c        ****     
 323:main.c        ****     for(;;)
 324:main.c        ****     {      
 325:main.c        ****         runTempHumidModule(); 
 491              		.loc 1 325 0
 492 0020 FFF7FEFF 		bl	runTempHumidModule
ARM GAS  C:\Users\Keyarash\AppData\Local\Temp\cc1Nb0b0.s 			page 16


 493              	.LVL57:
 326:main.c        ****         
 327:main.c        ****         CyDelay(CMD_TO_CMD_DELAY);       
 494              		.loc 1 327 0
 495 0024 FA20     		movs	r0, #250
 496 0026 4000     		lsls	r0, r0, #1
 497 0028 FFF7FEFF 		bl	CyDelay
 498              	.LVL58:
 328:main.c        ****          
 329:main.c        ****         
 330:main.c        ****         /* When conversion of sequencing channels has completed */
 331:main.c        ****         if((dataReady & ADC_SAR_SEQ_EOS_MASK) != 0u)
 499              		.loc 1 331 0
 500 002c 154B     		ldr	r3, .L31+4
 501 002e 1B68     		ldr	r3, [r3]
 502 0030 DB07     		lsls	r3, r3, #31
 503 0032 F5D5     		bpl	.L29
 332:main.c        ****         {
 333:main.c        ****             /* Get voltage, measured by ADC */
 334:main.c        ****             dataReady &= ~ADC_SAR_SEQ_EOS_MASK;
 504              		.loc 1 334 0
 505 0034 134A     		ldr	r2, .L31+4
 506 0036 1368     		ldr	r3, [r2]
 507 0038 0121     		movs	r1, #1
 508 003a 8B43     		bics	r3, r1
 509 003c 1360     		str	r3, [r2]
 335:main.c        ****            
 336:main.c        ****             angle_y = ADC_SAR_SEQ_CountsTo_Volts(CH0_N, result[CH0_N]);
 510              		.loc 1 336 0
 511 003e 124C     		ldr	r4, .L31+8
 512 0040 2188     		ldrh	r1, [r4]
 513 0042 09B2     		sxth	r1, r1
 514 0044 0020     		movs	r0, #0
 515 0046 FFF7FEFF 		bl	ADC_SAR_SEQ_CountsTo_Volts
 516              	.LVL59:
 517 004a 051C     		adds	r5, r0, #0
 518              	.LVL60:
 337:main.c        ****             angle_x = ADC_SAR_SEQ_CountsTo_Volts(CH1_N, result[CH1_N]);
 519              		.loc 1 337 0
 520 004c 6188     		ldrh	r1, [r4, #2]
 521 004e 09B2     		sxth	r1, r1
 522 0050 0120     		movs	r0, #1
 523              	.LVL61:
 524 0052 FFF7FEFF 		bl	ADC_SAR_SEQ_CountsTo_Volts
 525              	.LVL62:
 526 0056 061C     		adds	r6, r0, #0
 527              	.LVL63:
 338:main.c        ****             
 339:main.c        ****               
 340:main.c        ****      
 341:main.c        ****             
 342:main.c        ****             /* Print voltage value to UART */
 343:main.c        ****             sprintf(
 528              		.loc 1 343 0
 529 0058 281C     		adds	r0, r5, #0
 530              	.LVL64:
 531 005a FFF7FEFF 		bl	__aeabi_f2d
ARM GAS  C:\Users\Keyarash\AppData\Local\Temp\cc1Nb0b0.s 			page 17


 532              	.LVL65:
 533 005e 0400     		movs	r4, r0
 534 0060 0D00     		movs	r5, r1
 535              	.LVL66:
 536 0062 301C     		adds	r0, r6, #0
 537 0064 FFF7FEFF 		bl	__aeabi_f2d
 538              	.LVL67:
 539 0068 0090     		str	r0, [sp]
 540 006a 0191     		str	r1, [sp, #4]
 541 006c 2200     		movs	r2, r4
 542 006e 2B00     		movs	r3, r5
 543 0070 0649     		ldr	r1, .L31+12
 544 0072 03A8     		add	r0, sp, #12
 545 0074 FFF7FEFF 		bl	sprintf
 546              	.LVL68:
 344:main.c        ****                 uartLine, "voltage_y: %f V, voltage_x %f\n",
 345:main.c        ****                 (float32)angle_y,(float32)angle_x
 346:main.c        ****                 );
 347:main.c        ****             
 348:main.c        ****             UART_UartPutString(uartLine);
 547              		.loc 1 348 0
 548 0078 03A8     		add	r0, sp, #12
 549 007a FFF7FEFF 		bl	UART_UartPutString
 550              	.LVL69:
 551 007e CFE7     		b	.L29
 552              	.L32:
 553              		.align	2
 554              	.L31:
 555 0080 00000000 		.word	ADC_SAR_SEQ_ISR_LOC
 556 0084 00000000 		.word	.LANCHOR0
 557 0088 00000000 		.word	result
 558 008c 20000000 		.word	.LC7
 559              		.cfi_endproc
 560              	.LFE41:
 561              		.size	main, .-main
 562              		.global	timer_delay
 563              		.comm	result,4,4
 564              		.global	dataReady
 565              		.section	.rodata.str1.4,"aMS",%progbits,1
 566              		.align	2
 567              	.LC2:
 568 0000 54656D70 		.ascii	"Temperature: %d, Humidity: %d\012\000"
 568      65726174 
 568      7572653A 
 568      2025642C 
 568      2048756D 
 569 001f 00       		.space	1
 570              	.LC7:
 571 0020 766F6C74 		.ascii	"voltage_y: %f V, voltage_x %f\012\000"
 571      6167655F 
 571      793A2025 
 571      6620562C 
 571      20766F6C 
 572              		.bss
 573              		.align	2
 574              		.set	.LANCHOR0,. + 0
 575              		.type	dataReady, %object
ARM GAS  C:\Users\Keyarash\AppData\Local\Temp\cc1Nb0b0.s 			page 18


 576              		.size	dataReady, 4
 577              	dataReady:
 578 0000 00000000 		.space	4
 579              		.type	timer_delay, %object
 580              		.size	timer_delay, 4
 581              	timer_delay:
 582 0004 00000000 		.space	4
 583              		.text
 584              	.Letext0:
 585              		.file 2 "Generated_Source\\PSoC4/cytypes.h"
 586              		.file 3 "Generated_Source\\PSoC4/ADC_SAR_SEQ.h"
 587              		.file 4 "c:\\program files (x86)\\cypress\\psoc creator\\4.2\\psoc creator\\import\\gnu\\arm\\5.4.
 588              		.file 5 "Generated_Source\\PSoC4/UART_SPI_UART.h"
 589              		.file 6 "Generated_Source\\PSoC4/I2CM_I2C.h"
 590              		.file 7 "Generated_Source\\PSoC4/TimerHumidityTemp.h"
 591              		.file 8 "Generated_Source\\PSoC4/I2CM.h"
 592              		.file 9 "Generated_Source\\PSoC4/UART.h"
 593              		.file 10 "Generated_Source\\PSoC4/Timer.h"
 594              		.file 11 "Generated_Source\\PSoC4/ADC_SAR_SEQ_IRQ.h"
 595              		.file 12 "Generated_Source\\PSoC4/CyLib.h"